00000000001232a4 T c_audio_batch_enh_create@@Base
00000000001262e4 T c_enh_aligner_align_normalized@@Base
0000000000125fa0 T c_enh_aligner_align_pcm@@Base
0000000000125dec T c_enh_aligner_create@@Base
0000000000125f00 T c_enh_aligner_destroy@@Base
0000000000126628 T c_enh_align_result_destroy@@Base
000000000012105c T c_enh_asr_create@@Base
0000000000121170 T c_enh_asr_destroy@@Base
0000000000121210 T c_enh_asr_predict@@Base
0000000000121494 T c_enh_asr_predict_many@@Base
0000000000121c28 T c_enh_asr_result_arr_destroy@@Base
0000000000121b94 T c_enh_asr_result_destroy@@Base
000000000012355c T c_enh_audio_batch_add_raw_batch@@Base
0000000000123bf0 T c_enh_audio_batch_add_wav@@Base
00000000001238d4 T c_enh_audio_batch_debug_dump@@Base
0000000000123788 T c_enh_audio_batch_destroy@@Base
0000000000123380 T c_enh_audio_batch_fill@@Base
0000000000123d50 T c_enh_audio_batch_get_pcm@@Base
0000000000123840 T c_enh_audio_batch_reset@@Base
0000000000122384 T c_enh_audio_classifier_create@@Base
0000000000122498 T c_enh_audio_classifier_destroy@@Base
000000000012294c T c_enh_audio_classifier_number_of_events_per_timestamp@@Base
0000000000122538 T c_enh_audio_classifier_predict@@Base
0000000000122878 T c_enh_audio_classifier_result_destroy@@Base
0000000000122ad4 T c_enh_codec_create@@Base
0000000000122c88 T c_enh_codec_decode@@Base
0000000000122be8 T c_enh_codec_destroy@@Base
0000000000122ea0 T c_enh_codec_extract_meta@@Base
0000000000124680 T c_enh_config_create@@Base
000000000012485c T c_enh_config_destroy@@Base
0000000000124930 T c_enh_config_dump@@Base
00000000001244d0 T c_enh_config_input_create@@Base
00000000001245e8 T c_enh_config_input_destroy@@Base
0000000000124bcc T c_enh_cut_create@@Base
0000000000124d1c T c_enh_cut_destroy@@Base
0000000000124dbc T c_enh_cut_do_cut@@Base
0000000000125a34 T c_enh_denoise_accept_norm_float@@Base
00000000001258f4 T c_enh_denoise_accept_pcm@@Base
0000000000125740 T c_enh_denoise_create@@Base
0000000000125854 T c_enh_denoise_destroy@@Base
0000000000125cb0 T c_enh_denoise_finalize_float@@Base
0000000000125b74 T c_enh_denoise_finalize_pcm@@Base
0000000000126fa0 T c_enh_pipeline_accept_pcm@@Base
0000000000126748 T c_enh_pipeline_create@@Base
000000000012685c T c_enh_pipeline_destroy@@Base
0000000000123b14 T c_enh_pipeline_free_raw_audio_batch@@Base
0000000000123b74 T c_enh_pipeline_free_raw_audio_batch_pcm@@Base
0000000000126ce4 T c_enh_pipeline_get_vec_vec_float@@Base
00000000001268fc T c_enh_pipeline_run@@Base
00000000001269c0 T c_enh_pipeline_set_vec_vec_float@@Base
0000000000128754 T c_enh_punct_create@@Base
0000000000128868 T c_enh_punct_destroy@@Base
0000000000128908 T c_enh_punct_predict@@Base
0000000000128bc4 T c_enh_punct_result_destroy@@Base
0000000000128c48 T c_enh_resampler_create@@Base
0000000000128d5c T c_enh_resampler_destroy@@Base
0000000000128dfc T c_enh_resampler_resample@@Base
0000000000194270 W _Z15collect_batchesIN2vk3enh11AudioBufferEENSt6__ndk16vectorINS4_IT_NS3_9allocatorIS5_EEEENS6_IS8_EEEERKS8_i@@Base
000000000057baf8 V _ZGVZN2vk3enh12CachedObjectINS0_9ScopedLogEE12creatorFuncsEvE14_creator_funcs@@Base
000000000057bb58 V _ZGVZN2vk3enh12CachedObjectINS0_9ScopedLogEE5cacheEvE6_cache@@Base
000000000057bac8 V _ZGVZN2vk3enh12CachedObjectINS0_9ScopedLogEE5mutexEvE6_mutex@@Base
000000000057bb28 V _ZGVZN2vk3enh12CachedObjectINS0_9ScopedLogEE9onceFlagsEvE11_once_flags@@Base
000000000057b670 V _ZGVZN2vk3enh24AudioBufferFileInputType12names2ValuesEvE3map@@Base
000000000057b640 V _ZGVZN2vk3enh24AudioBufferFileInputType12values2NamesEvE3map@@Base
000000000057bf88 V _ZGVZN2vk3enh8RegistryINSt6__ndk112basic_stringIcNS2_11char_traitsIcEENS2_9allocatorIcEEEEFNS2_10shared_ptrINS0_10AudioMixerEEERKNS0_6ConfigEEE7classesEvE8instance@@Base
000000000057bf58 V _ZGVZN2vk3enh8RegistryINSt6__ndk112basic_stringIcNS2_11char_traitsIcEENS2_9allocatorIcEEEEFNS2_10shared_ptrINS0_11AudioFilterEEERKNS0_6ConfigEEE7classesEvE8instance@@Base
000000000057bc78 V _ZGVZN2vk3enh8RegistryINSt6__ndk112basic_stringIcNS2_11char_traitsIcEENS2_9allocatorIcEEEEFNS2_10shared_ptrINS0_13ForcedAlignerEEERKNS0_6ConfigEEE7classesEvE8instance@@Base
000000000057bbe8 V _ZGVZN2vk3enh8RegistryINSt6__ndk112basic_stringIcNS2_11char_traitsIcEENS2_9allocatorIcEEEEFNS2_10shared_ptrINS0_15AudioClassifierEEERKNS0_6ConfigEEE7classesEvE8instance@@Base
000000000057bdc8 V _ZGVZN2vk3enh8RegistryINSt6__ndk112basic_stringIcNS2_11char_traitsIcEENS2_9allocatorIcEEEEFNS2_10shared_ptrINS0_15SuperResolutionEEERKNS0_6ConfigEEE7classesEvE8instance@@Base
000000000057bfb8 V _ZGVZN2vk3enh8RegistryINSt6__ndk112basic_stringIcNS2_11char_traitsIcEENS2_9allocatorIcEEEEFNS2_10shared_ptrINS0_16AudioDelayBufferEEERKNS0_6ConfigEEE7classesEvE8instance@@Base
000000000057bd08 V _ZGVZN2vk3enh8RegistryINSt6__ndk112basic_stringIcNS2_11char_traitsIcEENS2_9allocatorIcEEEEFNS2_10shared_ptrINS0_17DiarizationEngineEEERKNS0_6ConfigEEE7classesEvE8instance@@Base
000000000057bc18 V _ZGVZN2vk3enh8RegistryINSt6__ndk112basic_stringIcNS2_11char_traitsIcEENS2_9allocatorIcEEEEFNS2_10shared_ptrINS0_20EnhancementAlgorithmEEERKNS0_6ConfigEEE7classesEvE8instance@@Base
000000000057bd38 V _ZGVZN2vk3enh8RegistryINSt6__ndk112basic_stringIcNS2_11char_traitsIcEENS2_9allocatorIcEEEEFNS2_10shared_ptrINS0_24SpeakerRecognitionEngineEEERKNS0_6ConfigEEE7classesEvE8instance@@Base
000000000057bd68 V _ZGVZN2vk3enh8RegistryINSt6__ndk112basic_stringIcNS2_11char_traitsIcEENS2_9allocatorIcEEEEFNS2_10shared_ptrINS0_26SpeakerRecognitionVerifierEEERKNS0_6ConfigEEE7classesEvE8instance@@Base
000000000057bd98 V _ZGVZN2vk3enh8RegistryINSt6__ndk112basic_stringIcNS2_11char_traitsIcEENS2_9allocatorIcEEEEFNS2_10shared_ptrINS0_3AECEEERKNS0_6ConfigEEE7classesEvE8instance@@Base
000000000057bc48 V _ZGVZN2vk3enh8RegistryINSt6__ndk112basic_stringIcNS2_11char_traitsIcEENS2_9allocatorIcEEEEFNS2_10shared_ptrINS0_3AGCEEERKNS0_6ConfigEEE7classesEvE8instance@@Base
000000000057be28 V _ZGVZN2vk3enh8RegistryINSt6__ndk112basic_stringIcNS2_11char_traitsIcEENS2_9allocatorIcEEEEFNS2_10shared_ptrINS0_3ASREEERKNS0_6ConfigEEE7classesEvE8instance@@Base
000000000057bfe8 V _ZGVZN2vk3enh8RegistryINSt6__ndk112basic_stringIcNS2_11char_traitsIcEENS2_9allocatorIcEEEEFNS2_10shared_ptrINS0_3KWSEEERKNS0_6ConfigEEE7classesEvE8instance@@Base
000000000057bdf8 V _ZGVZN2vk3enh8RegistryINSt6__ndk112basic_stringIcNS2_11char_traitsIcEENS2_9allocatorIcEEEEFNS2_10shared_ptrINS0_3VfiEEERKNS0_6ConfigEEE7classesEvE8instance@@Base
000000000057d320 V _ZGVZN2vk3enh8RegistryINSt6__ndk112basic_stringIcNS2_11char_traitsIcEENS2_9allocatorIcEEEEFNS2_10shared_ptrINS0_4NnetEEERKNS0_6ConfigERKNS2_6vectorIhNS6_IhEEEEEE7classesEvE8instance@@Base
000000000057bef8 V _ZGVZN2vk3enh8RegistryINSt6__ndk112basic_stringIcNS2_11char_traitsIcEENS2_9allocatorIcEEEEFNS2_10shared_ptrINS0_5CodecEEERKNS0_6ConfigEEE7classesEvE8instance@@Base
000000000057be98 V _ZGVZN2vk3enh8RegistryINSt6__ndk112basic_stringIcNS2_11char_traitsIcEENS2_9allocatorIcEEEEFNS2_10shared_ptrINS0_5PunctEEERKNS0_6ConfigEEE7classesEvE8instance@@Base
000000000057bf28 V _ZGVZN2vk3enh8RegistryINSt6__ndk112basic_stringIcNS2_11char_traitsIcEENS2_9allocatorIcEEEEFNS2_10shared_ptrINS0_6EffectEEERKNS0_6ConfigEEE7classesEvE8instance@@Base
000000000057be68 V _ZGVZN2vk3enh8RegistryINSt6__ndk112basic_stringIcNS2_11char_traitsIcEENS2_9allocatorIcEEEEFNS2_10shared_ptrINS0_7AnimojiEEERKNS0_6ConfigEEE7classesEvE8instance@@Base
000000000057bcd8 V _ZGVZN2vk3enh8RegistryINSt6__ndk112basic_stringIcNS2_11char_traitsIcEENS2_9allocatorIcEEEEFNS2_10shared_ptrINS0_8PipelineEEERKNS0_6ConfigEEE7classesEvE8instance@@Base
000000000057bec8 V _ZGVZN2vk3enh8RegistryINSt6__ndk112basic_stringIcNS2_11char_traitsIcEENS2_9allocatorIcEEEEFNS2_10shared_ptrINS0_9ProfanityEEERKNS0_6ConfigEEE7classesEvE8instance@@Base
000000000057bca8 V _ZGVZN2vk3enh8RegistryINSt6__ndk112basic_stringIcNS2_11char_traitsIcEENS2_9allocatorIcEEEEFNS2_10shared_ptrINS0_9ResamplerEEERKNS0_6ConfigEEE7classesEvE8instance@@Base
000000000057ba00 V _ZGVZN2vk3enh9ScopedLog5Level12names2ValuesEvE3map@@Base
000000000057ba30 V _ZGVZN2vk3enh9ScopedLog9Verbosity12names2ValuesEvE3map@@Base
000000000012faac W _ZN12CutterParams10fromConfigERKN2vk3enh6ConfigE@@Base
000000000019d8a0 T _ZN2vk3enh10add_deltasERKN5kaldi6MatrixIfEEii@@Base
000000000018b1a4 T _ZN2vk3enh10AECFactory15createAlgorithmERKNS0_6ConfigE@@Base
0000000000186284 T _ZN2vk3enh10AGCFactory15createAlgorithmERKNS0_6ConfigE@@Base
000000000019d8fc T _ZN2vk3enh10apply_cmvnERKN5kaldi6MatrixIfEEb@@Base
000000000018cca4 T _ZN2vk3enh10ASRFactory15createAlgorithmERKNS0_6ConfigE@@Base
000000000018f674 T _ZN2vk3enh10AsrService14calcConfidenceERKNSt6__ndk16vectorINS2_10unique_ptrINS0_13ASRPredictionENS2_14default_deleteIS5_EEEENS2_9allocatorIS8_EEEERKNS0_3CtxE@@Base
000000000019157c T _ZN2vk3enh10AsrService21collapseCompoundWordsERKNS0_11AlignResultE@@Base
000000000057be30 B _ZN2vk3enh10AsrService3logE@@Base
00000000001911d0 T _ZN2vk3enh10AsrService9fillPunctERKNS0_11AlignResultERKNSt6__ndk112basic_stringIcNS5_11char_traitsIcEENS5_9allocatorIcEEEE@@Base
000000000018d5a4 T _ZN2vk3enh10AsrServiceC1ERKNSt6__ndk112basic_stringIcNS2_11char_traitsIcEENS2_9allocatorIcEEEE@@Base
000000000018d5a4 T _ZN2vk3enh10AsrServiceC2ERKNSt6__ndk112basic_stringIcNS2_11char_traitsIcEENS2_9allocatorIcEEEE@@Base
0000000000130620 T _ZN2vk3enh10FileStream10streamSizeEv@@Base
0000000000130680 T _ZN2vk3enh10FileStream12readUntilEndEv@@Base
0000000000130524 T _ZN2vk3enh10FileStream4readEm@@Base
00000000001303e4 T _ZN2vk3enh10FileStreamC1ERKNSt6__ndk112basic_stringIcNS2_11char_traitsIcEENS2_9allocatorIcEEEE@@Base
00000000001303e4 T _ZN2vk3enh10FileStreamC2ERKNSt6__ndk112basic_stringIcNS2_11char_traitsIcEENS2_9allocatorIcEEEE@@Base
00000000001bfa9c W _ZN2vk3enh10FileStreamD2Ev@@Base
000000000014fe18 T _ZN2vk3enh10initTfLiteEPKc@@Base
000000000019cfa0 T _ZN2vk3enh10KWSFactory15createAlgorithmERKNS0_6ConfigE@@Base
000000000019bbbc W _ZN2vk3enh10RingBufferIfE9push_backIfEEvPKT_m@@Base
000000000019cab0 W _ZN2vk3enh10RingBufferIiE9push_backIiEEvPKT_m@@Base
000000000019c334 W _ZN2vk3enh10RingBufferIsE9push_backIsEEvPKT_m@@Base
000000000018c3a4 T _ZN2vk3enh10VfiFactory15createAlgorithmERKNS0_6ConfigE@@Base
0000000000194ca8 W _ZN2vk3enh11AlignResult3addENSt6__ndk112basic_stringIcNS2_11char_traitsIcEENS2_9allocatorIcEEEERKlSA_@@Base
0000000000194a70 W _ZN2vk3enh11AlignResultaSEOS1_@@Base
00000000001266bc W _ZN2vk3enh11AlignResultD2Ev@@Base
000000000012a044 T _ZN2vk3enh11AudioBuffer11readTextPcmERKNSt6__ndk112basic_stringIcNS2_11char_traitsIcEENS2_9allocatorIcEEEE@@Base
000000000012a390 T _ZN2vk3enh11AudioBuffer14readTextFloatsERKNSt6__ndk112basic_stringIcNS2_11char_traitsIcEENS2_9allocatorIcEEEE@@Base
000000000012beb4 T _ZN2vk3enh11AudioBuffer5clearEv@@Base
000000000012bec8 T _ZN2vk3enh11AudioBuffer5sliceEmm@@Base
000000000012bd08 T _ZN2vk3enh11AudioBuffer6appendEPKfmb@@Base
000000000012bd4c T _ZN2vk3enh11AudioBuffer6appendEPKsmb@@Base
000000000012ba9c T _ZN2vk3enh11AudioBuffer6appendERKS1_b@@Base
0000000000129690 T _ZN2vk3enh11AudioBuffer6mirrorEb@@Base
000000000012a6e4 T _ZN2vk3enh11AudioBuffer7readWavERKNSt6__ndk112basic_stringIcNS2_11char_traitsIcEENS2_9allocatorIcEEEE@@Base
000000000012a970 T _ZN2vk3enh11AudioBuffer8copyFromEPKfmRKNS0_9AudioMetaEb@@Base
000000000012a9d0 T _ZN2vk3enh11AudioBuffer8copyFromEPKsmRKNS0_9AudioMetaEb@@Base
000000000012bedc T _ZN2vk3enh11AudioBuffer8leftLastEmb@@Base
000000000012bdb0 T _ZN2vk3enh11AudioBuffer8popFrontEmb@@Base
0000000000129858 T _ZN2vk3enh11AudioBufferC1EONSt6__ndk16vectorIfNS2_9allocatorIfEEEERKNS0_9AudioMetaEb@@Base
00000000001295e4 T _ZN2vk3enh11AudioBufferC1EONSt6__ndk16vectorIsNS2_9allocatorIsEEEERKNS0_9AudioMetaEb@@Base
0000000000129578 T _ZN2vk3enh11AudioBufferC1ERKNS0_9AudioMetaE@@Base
0000000000129ae0 T _ZN2vk3enh11AudioBufferC1ERKNSt6__ndk112basic_stringIcNS2_11char_traitsIcEENS2_9allocatorIcEEEENS0_24AudioBufferFileInputTypeEb@@Base
0000000000129aac T _ZN2vk3enh11AudioBufferC1ERKNSt6__ndk112basic_stringIcNS2_11char_traitsIcEENS2_9allocatorIcEEEENS0_24AudioBufferFileInputTypeERKNS0_9AudioMetaEb@@Base
00000000001299d4 T _ZN2vk3enh11AudioBufferC1ERKNSt6__ndk16vectorIfNS2_9allocatorIfEEEERKNS0_9AudioMetaEb@@Base
00000000001298f4 T _ZN2vk3enh11AudioBufferC1ERKNSt6__ndk16vectorIsNS2_9allocatorIsEEEERKNS0_9AudioMetaEb@@Base
0000000000129858 T _ZN2vk3enh11AudioBufferC2EONSt6__ndk16vectorIfNS2_9allocatorIfEEEERKNS0_9AudioMetaEb@@Base
00000000001295e4 T _ZN2vk3enh11AudioBufferC2EONSt6__ndk16vectorIsNS2_9allocatorIsEEEERKNS0_9AudioMetaEb@@Base
0000000000129578 T _ZN2vk3enh11AudioBufferC2ERKNS0_9AudioMetaE@@Base
0000000000129ae0 T _ZN2vk3enh11AudioBufferC2ERKNSt6__ndk112basic_stringIcNS2_11char_traitsIcEENS2_9allocatorIcEEEENS0_24AudioBufferFileInputTypeEb@@Base
0000000000129aac T _ZN2vk3enh11AudioBufferC2ERKNSt6__ndk112basic_stringIcNS2_11char_traitsIcEENS2_9allocatorIcEEEENS0_24AudioBufferFileInputTypeERKNS0_9AudioMetaEb@@Base
00000000001299d4 T _ZN2vk3enh11AudioBufferC2ERKNSt6__ndk16vectorIfNS2_9allocatorIfEEEERKNS0_9AudioMetaEb@@Base
00000000001298f4 T _ZN2vk3enh11AudioBufferC2ERKNSt6__ndk16vectorIsNS2_9allocatorIsEEEERKNS0_9AudioMetaEb@@Base
0000000000122058 W _ZN2vk3enh11AudioBufferC2ERKS1_@@Base
0000000000122fe4 W _ZN2vk3enh11AudioBufferD2Ev@@Base
0000000000542c1c T _ZN2vk3enh11BCResNetKWS11doScoreDataEv@@Base
00000000005434cc T _ZN2vk3enh11BCResNetKWS12computeProbsEv@@Base
00000000005444e4 W _ZN2vk3enh11BCResNetKWS12getInputSizeEv@@Base
000000000054308c T _ZN2vk3enh11BCResNetKWS15extractFeaturesEv@@Base
00000000005428a4 T _ZN2vk3enh11BCResNetKWS5resetEv@@Base
0000000000542f70 T _ZN2vk3enh11BCResNetKWS5scoreEPKf@@Base
0000000000542c4c T _ZN2vk3enh11BCResNetKWS5scoreEPKi@@Base
00000000005428c4 T _ZN2vk3enh11BCResNetKWS5scoreEPKs@@Base
00000000005424a0 T _ZN2vk3enh11BCResNetKWSC1ERKNS0_6ConfigE@@Base
00000000005424a0 T _ZN2vk3enh11BCResNetKWSC2ERKNS0_6ConfigE@@Base
00000000005446e4 W _ZN2vk3enh11BCResNetKWSD0Ev@@Base
0000000000544568 W _ZN2vk3enh11BCResNetKWSD2Ev@@Base
0000000000124a40 W _ZN2vk3enh11ConfigInputC2EPKcbS3_@@Base
000000000011e4d4 W _ZN2vk3enh11ConfigInputD2Ev@@Base
000000000019ecb8 T _ZN2vk3enh11MfccWrapper4optsEv@@Base
000000000019eb90 T _ZN2vk3enh11MfccWrapper7computeEPKsm@@Base
000000000019eb3c T _ZN2vk3enh11MfccWrapper7computeERKN5kaldi6VectorIfEE@@Base
000000000019e528 T _ZN2vk3enh11MfccWrapperC1ERKNS0_6ConfigE@@Base
000000000019e528 T _ZN2vk3enh11MfccWrapperC2ERKNS0_6ConfigE@@Base
00000000001c058c T _ZN2vk3enh11TensorIndex10fromStringENSt6__ndk112basic_stringIcNS2_11char_traitsIcEENS2_9allocatorIcEEEE@@Base
00000000001c0514 T _ZN2vk3enh11TensorIndex7fromIntEi@@Base
00000000001c082c W _ZN2vk3enh11TensorIndexD2Ev@@Base
000000000017e1d8 W _ZN2vk3enh12CachedObjectINS0_9ScopedLogEE10setCreatorEmNSt6__ndk18functionIFNS4_10shared_ptrIS2_EEvEEE@@Base
000000000017dffc W _ZN2vk3enh12CachedObjectINS0_9ScopedLogEE14setCreatorOnceEmNSt6__ndk18functionIFNS4_10shared_ptrIS2_EEvEEE@@Base
0000000000150d70 W _ZN2vk3enh12CachedObjectINS0_9ScopedLogEE14setCreatorOnceERKNSt6__ndk112basic_stringIcNS4_11char_traitsIcEENS4_9allocatorIcEEEENS4_8functionIFNS4_10shared_ptrIS2_EEvEEE@@Base
000000000017f058 W _ZN2vk3enh12CachedObjectINS0_9ScopedLogEE9getObjectEm@@Base
000000000019885c T _ZN2vk3enh12CodecFactory15createAlgorithmERKNS0_6ConfigE@@Base
000000000019df78 T _ZN2vk3enh12FBankWrapper4optsEv@@Base
000000000019de38 T _ZN2vk3enh12FBankWrapper7computeEPKsm@@Base
000000000019de40 T _ZN2vk3enh12FBankWrapper7computeEPKsmi@@Base
000000000019dd94 T _ZN2vk3enh12FBankWrapper7computeERKN5kaldi6VectorIfEE@@Base
000000000019dde8 T _ZN2vk3enh12FBankWrapper7computeERKN5kaldi6VectorIfEEi@@Base
000000000019d9a8 T _ZN2vk3enh12FBankWrapperC1ERKNS0_6ConfigE@@Base
000000000019d9a8 T _ZN2vk3enh12FBankWrapperC2ERKNS0_6ConfigE@@Base
000000000052d8ec W _ZN2vk3enh12IntDecimator14RunningAverageIfE7processEPKfmi@@Base
000000000052d41c W _ZN2vk3enh12IntDecimator14RunningAverageIsE7processEPKsmi@@Base
000000000052c888 T _ZN2vk3enh12IntDecimator8resampleEPKfm@@Base
000000000052c400 T _ZN2vk3enh12IntDecimator8resampleEPKsm@@Base
000000000052c86c T _ZN2vk3enh12IntDecimator8resampleERKNSt6__ndk16vectorIfNS2_9allocatorIfEEEE@@Base
000000000052cbdc T _ZN2vk3enh12IntDecimatorC1ERKNS0_6ConfigE@@Base
000000000052cbdc T _ZN2vk3enh12IntDecimatorC2ERKNS0_6ConfigE@@Base
000000000052df80 W _ZN2vk3enh12IntDecimatorD0Ev@@Base
000000000052df1c W _ZN2vk3enh12IntDecimatorD2Ev@@Base
000000000019765c T _ZN2vk3enh12PunctFactory15createAlgorithmERKNS0_6ConfigE@@Base
000000000052f45c T _ZN2vk3enh12SRCResampler8resampleEPKfm@@Base
000000000052efd0 T _ZN2vk3enh12SRCResampler8resampleEPKsm@@Base
000000000052f440 T _ZN2vk3enh12SRCResampler8resampleERKNSt6__ndk16vectorIfNS2_9allocatorIfEEEE@@Base
000000000052f6d0 T _ZN2vk3enh12SRCResamplerC1Eiii@@Base
000000000052f6d0 T _ZN2vk3enh12SRCResamplerC2Eiii@@Base
000000000052fa28 W _ZN2vk3enh12SRCResamplerD0Ev@@Base
000000000052f9a4 W _ZN2vk3enh12SRCResamplerD2Ev@@Base
00000000005415d8 T _ZN2vk3enh13buildMelBasisEmmm@@Base
00000000001284a4 W _ZN2vk3enh13CtxObjectImplINSt6__ndk16vectorINS3_IfNS2_9allocatorIfEEEENS4_IS6_EEEEED0Ev@@Base
0000000000128418 W _ZN2vk3enh13CtxObjectImplINSt6__ndk16vectorINS3_IfNS2_9allocatorIfEEEENS4_IS6_EEEEED2Ev@@Base
000000000019915c T _ZN2vk3enh13EffectFactory15createAlgorithmERKNS0_6ConfigE@@Base
000000000014ffac T _ZN2vk3enh13FastScopedLogC1ERKNSt6__ndk112basic_stringIcNS2_11char_traitsIcEENS2_9allocatorIcEEEE@@Base
000000000014ffac T _ZN2vk3enh13FastScopedLogC2ERKNSt6__ndk112basic_stringIcNS2_11char_traitsIcEENS2_9allocatorIcEEEE@@Base
000000000011e348 W _ZN2vk3enh13FastScopedLogD2Ev@@Base
000000000052ba1c W _ZN2vk3enh13gtcrntfParamsC2ERKNS0_6ConfigE@@Base
000000000052c0b8 W _ZN2vk3enh13gtcrntfParamsD0Ev@@Base
000000000052bdec W _ZN2vk3enh13gtcrntfParamsD2Ev@@Base
0000000000196d5c T _ZN2vk3enh14AnimojiFactory15createAlgorithmERKNS0_6ConfigE@@Base
00000000001c0824 T _ZN2vk3enh14TensorIndexInt4hashEv@@Base
00000000001c0730 T _ZN2vk3enh14TensorIndexInt4typeEv@@Base
00000000001c0738 T _ZN2vk3enh14TensorIndexInt6equalsERKNSt6__ndk110shared_ptrINS0_11TensorIndexEEE@@Base
00000000001c080c T _ZN2vk3enh14TensorIndexIntC1Ei@@Base
00000000001c080c T _ZN2vk3enh14TensorIndexIntC2Ei@@Base
00000000001c0830 W _ZN2vk3enh14TensorIndexIntD0Ev@@Base
000000000012c044 T _ZN2vk3enh15AudioBufferViewC1ERKNS0_11AudioBufferE@@Base
000000000012c070 T _ZN2vk3enh15AudioBufferViewC1ERKNS0_11AudioBufferEmm@@Base
000000000012c044 T _ZN2vk3enh15AudioBufferViewC2ERKNS0_11AudioBufferE@@Base
000000000012c070 T _ZN2vk3enh15AudioBufferViewC2ERKNS0_11AudioBufferEmm@@Base
0000000000127338 W _ZN2vk3enh15ConcreteHandlerINSt6__ndk112basic_stringIcNS2_11char_traitsIcEENS2_9allocatorIcEEEEJNS2_6vectorINS9_IfNS6_IfEEEENS6_ISB_EEEEEE6handleERKS8_RKSD_@@Base
000000000019bd18 W _ZN2vk3enh15KwsBufferizatorIfE10resetModelEv@@Base
000000000019b790 W _ZN2vk3enh15KwsBufferizatorIfE5scoreEPKfm@@Base
000000000019b55c W _ZN2vk3enh15KwsBufferizatorIfEC1EONSt6__ndk110shared_ptrINS0_3KWSEEE@@Base
000000000019b55c W _ZN2vk3enh15KwsBufferizatorIfEC2EONSt6__ndk110shared_ptrINS0_3KWSEEE@@Base
000000000019b718 W _ZN2vk3enh15KwsBufferizatorIfED1Ev@@Base
000000000019b718 W _ZN2vk3enh15KwsBufferizatorIfED2Ev@@Base
000000000019cc0c W _ZN2vk3enh15KwsBufferizatorIiE10resetModelEv@@Base
000000000019c684 W _ZN2vk3enh15KwsBufferizatorIiE5scoreEPKim@@Base
000000000019c4a0 W _ZN2vk3enh15KwsBufferizatorIiEC1EONSt6__ndk110shared_ptrINS0_3KWSEEE@@Base
000000000019c4a0 W _ZN2vk3enh15KwsBufferizatorIiEC2EONSt6__ndk110shared_ptrINS0_3KWSEEE@@Base
000000000019c60c W _ZN2vk3enh15KwsBufferizatorIiED1Ev@@Base
000000000019c60c W _ZN2vk3enh15KwsBufferizatorIiED2Ev@@Base
000000000019c490 W _ZN2vk3enh15KwsBufferizatorIsE10resetModelEv@@Base
000000000019bf08 W _ZN2vk3enh15KwsBufferizatorIsE5scoreEPKsm@@Base
000000000019bd28 W _ZN2vk3enh15KwsBufferizatorIsEC1EONSt6__ndk110shared_ptrINS0_3KWSEEE@@Base
000000000019bd28 W _ZN2vk3enh15KwsBufferizatorIsEC2EONSt6__ndk110shared_ptrINS0_3KWSEEE@@Base
000000000019be90 W _ZN2vk3enh15KwsBufferizatorIsED1Ev@@Base
000000000019be90 W _ZN2vk3enh15KwsBufferizatorIsED2Ev@@Base
0000000000187d84 T _ZN2vk3enh15PipelineFactory15createAlgorithmERKNS0_6ConfigE@@Base
000000000053a0c4 W _ZN2vk3enh15Wav2LipV1ParamsC2ERKNS0_6ConfigE@@Base
000000000053a5b4 W _ZN2vk3enh15Wav2LipV1ParamsD0Ev@@Base
000000000053a3c0 W _ZN2vk3enh15Wav2LipV1ParamsD2Ev@@Base
000000000053b78c W _ZN2vk3enh15Wav2LipV3ParamsC2ERKNS0_6ConfigE@@Base
000000000053bc6c W _ZN2vk3enh15Wav2LipV3ParamsD0Ev@@Base
000000000053ba88 W _ZN2vk3enh15Wav2LipV3ParamsD2Ev@@Base
000000000053c9d4 W _ZN2vk3enh15Wav2LipV4ParamsC2ERKNS0_6ConfigE@@Base
000000000053ce60 W _ZN2vk3enh15Wav2LipV4ParamsD0Ev@@Base
000000000053cc7c W _ZN2vk3enh15Wav2LipV4ParamsD2Ev@@Base
000000000053ec60 T _ZN2vk3enh16FeatureExtractor11spectrogramERKN5Eigen6MatrixIfLi1ELin1ELi1ELi1ELin1EEE@@Base
000000000053e6e4 T _ZN2vk3enh16FeatureExtractor18buildHammingWindowEm@@Base
000000000053eff8 T _ZN2vk3enh16FeatureExtractor3fftERN5Eigen6MatrixIfLin1ELin1ELi1ELin1ELin1EEE@@Base
000000000053e97c T _ZN2vk3enh16FeatureExtractor7extractERKN5Eigen6MatrixIfLi1ELin1ELi1ELi1ELin1EEE@@Base
000000000053eb80 T _ZN2vk3enh16FeatureExtractor8extract_ERKN5Eigen6MatrixIfLi1ELin1ELi1ELi1ELin1EEE@@Base
000000000053e36c T _ZN2vk3enh16FeatureExtractorC1Emmmmm@@Base
000000000053e36c T _ZN2vk3enh16FeatureExtractorC2Emmmmm@@Base
0000000000545384 W _ZN2vk3enh16FeatureExtractorD2Ev@@Base
0000000000197f5c T _ZN2vk3enh16ProfanityFactory15createAlgorithmERKNS0_6ConfigE@@Base
0000000000187484 T _ZN2vk3enh16ResamplerFactory15createAlgorithmERKNS0_6ConfigE@@Base
000000000019a35c T _ZN2vk3enh17AudioMixerFactory15createAlgorithmERKNS0_6ConfigE@@Base
0000000000544104 W _ZN2vk3enh17BCResNetKWSParamsC2ERKNS0_6ConfigE@@Base
0000000000544708 W _ZN2vk3enh17BCResNetKWSParamsD0Ev@@Base
0000000000544454 W _ZN2vk3enh17BCResNetKWSParamsD2Ev@@Base
0000000000182018 T _ZN2vk3enh17readVocabFromPathEPKc@@Base
00000000001c09c4 T _ZN2vk3enh17TensorIndexString4hashEv@@Base
00000000001c0834 T _ZN2vk3enh17TensorIndexString4typeEv@@Base
00000000001c083c T _ZN2vk3enh17TensorIndexString6equalsERKNSt6__ndk110shared_ptrINS0_11TensorIndexEEE@@Base
00000000001c0998 T _ZN2vk3enh17TensorIndexStringC1ENSt6__ndk112basic_stringIcNS2_11char_traitsIcEENS2_9allocatorIcEEEE@@Base
00000000001c0998 T _ZN2vk3enh17TensorIndexStringC2ENSt6__ndk112basic_stringIcNS2_11char_traitsIcEENS2_9allocatorIcEEEE@@Base
00000000001c0a28 W _ZN2vk3enh17TensorIndexStringD0Ev@@Base
00000000001c0a04 W _ZN2vk3enh17TensorIndexStringD2Ev@@Base
00000000001c2f8c W _ZN2vk3enh17TfLiteModelParamsC2ERKNS0_6ConfigE@@Base
00000000001c3a0c W _ZN2vk3enh17TfLiteModelParamsD0Ev@@Base
00000000001c3360 W _ZN2vk3enh17TfLiteModelParamsD2Ev@@Base
0000000000199a5c T _ZN2vk3enh18AudioFilterFactory15createAlgorithmERKNS0_6ConfigE@@Base
0000000000185984 T _ZN2vk3enh18EnhancementFactory15createAlgorithmERKNS0_6ConfigE@@Base
000000000052dca0 W _ZN2vk3enh18IntDecimatorParamsC2ERKNS0_6ConfigE@@Base
000000000052dfe0 W _ZN2vk3enh18IntDecimatorParamsD0Ev@@Base
000000000052de8c W _ZN2vk3enh18IntDecimatorParamsD2Ev@@Base
00000000001c2104 T _ZN2vk3enh18TfLiteModelWrapper10outputIdxsEv@@Base
00000000001c1c18 T _ZN2vk3enh18TfLiteModelWrapper12inputTensorsEv@@Base
00000000001c1840 T _ZN2vk3enh18TfLiteModelWrapper3fwdERKNS0_9TensorMapE@@Base
00000000001c1898 T _ZN2vk3enh18TfLiteModelWrapper3fwdERKNS0_9TensorMapERS2_@@Base
00000000001c20fc T _ZN2vk3enh18TfLiteModelWrapper7backendEv@@Base
00000000001c1e40 T _ZN2vk3enh18TfLiteModelWrapperC1ERKNS0_6ConfigERKNSt6__ndk16vectorIhNS5_9allocatorIhEEEE@@Base
00000000001c1e40 T _ZN2vk3enh18TfLiteModelWrapperC2ERKNS0_6ConfigERKNSt6__ndk16vectorIhNS5_9allocatorIhEEEE@@Base
00000000001c365c W _ZN2vk3enh18TfLiteModelWrapperD0Ev@@Base
00000000001c34bc W _ZN2vk3enh18TfLiteModelWrapperD2Ev@@Base
00000000001820b0 T _ZN2vk3enh18WordpieceTokenizerC1ERKNSt6__ndk113unordered_mapINS2_12basic_stringIcNS2_11char_traitsIcEENS2_9allocatorIcEEEEmNS2_4hashIS9_EENS2_8equal_toIS9_EENS7_INS2_4pairIKS9_mEEEEEEm@@Base
00000000001820b0 T _ZN2vk3enh18WordpieceTokenizerC2ERKNSt6__ndk113unordered_mapINS2_12basic_stringIcNS2_11char_traitsIcEENS2_9allocatorIcEEEEmNS2_4hashIS9_EENS2_8equal_toIS9_EENS7_INS2_4pairIKS9_mEEEEEEm@@Base
0000000000181ea0 T _ZN2vk3enh19readVocabFromStreamERNSt6__ndk113basic_istreamIcNS1_11char_traitsIcEEEE@@Base
00000000001c24dc T _ZN2vk3enh19TfLiteTensorWrapper4dataEv@@Base
00000000001c2744 T _ZN2vk3enh19TfLiteTensorWrapper4sizeEv@@Base
00000000001c2750 T _ZN2vk3enh19TfLiteTensorWrapper5shapeEv@@Base
00000000001c24e8 T _ZN2vk3enh19TfLiteTensorWrapper9withBytesEPKhm@@Base
00000000001c2230 T _ZN2vk3enh19TfLiteTensorWrapper9withBytesERKNSt6__ndk16vectorIhNS2_9allocatorIhEEEE@@Base
00000000001c2734 T _ZN2vk3enh19TfLiteTensorWrapper9withShapeERKNSt6__ndk16vectorImNS2_9allocatorImEEEE@@Base
00000000001c34b8 W _ZN2vk3enh19TfLiteTensorWrapperD0Ev@@Base
0000000000180520 T _ZN2vk3enh20cyrillicLowerToLowerEv@@Base
000000000017fe74 T _ZN2vk3enh20cyrillicLowerToUpperEv@@Base
0000000000186b84 T _ZN2vk3enh20ForcedAlignerFactory15createAlgorithmERKNS0_6ConfigE@@Base
000000000019f6f0 T _ZN2vk3enh21readMelOptsFromConfigERKNS0_6ConfigE@@Base
0000000000185084 T _ZN2vk3enh22AudioClassifierFactory15createAlgorithmERKNS0_6ConfigE@@Base
000000000018079c T _ZN2vk3enh22convertCyrillicToLowerERNSt6__ndk112basic_stringIcNS1_11char_traitsIcEENS1_9allocatorIcEEEEm@@Base
00000000001805c4 T _ZN2vk3enh22convertCyrillicToUpperERNSt6__ndk112basic_stringIcNS1_11char_traitsIcEENS1_9allocatorIcEEEEm@@Base
000000000018baa4 T _ZN2vk3enh22SuperResolutionFactory15createAlgorithmERKNS0_6ConfigE@@Base
0000000000194e5c W _ZN2vk3enh23AudioClassifierContractD2Ev@@Base
000000000019ac5c T _ZN2vk3enh23AudioDelayBufferFactory15createAlgorithmERKNS0_6ConfigE@@Base
000000000019f0f8 T _ZN2vk3enh23readFrameOptsFromConfigERKNS0_6ConfigE@@Base
00000000001766d0 W _ZN2vk3enh23thread_id_hex_formatter6formatERKN6spdlog7details7log_msgERK2tmRN3fmt2v719basic_memory_bufferIcLm250ENSt6__ndk19allocatorIcEEEE@@Base
00000000001766cc W _ZN2vk3enh23thread_id_hex_formatterD0Ev@@Base
000000000012c9fc W _ZN2vk3enh24AudioBufferFileInputType16initNames2ValuesEv@@Base
000000000012c878 W _ZN2vk3enh24AudioBufferFileInputType16initValues2NamesEv@@Base
0000000000546600 T _ZN2vk3enh24BCResNetExternalStateKWS11doScoreDataEv@@Base
0000000000546eb0 T _ZN2vk3enh24BCResNetExternalStateKWS12computeProbsEv@@Base
0000000000547da4 W _ZN2vk3enh24BCResNetExternalStateKWS12getInputSizeEv@@Base
0000000000546a70 T _ZN2vk3enh24BCResNetExternalStateKWS15extractFeaturesEv@@Base
0000000000546254 T _ZN2vk3enh24BCResNetExternalStateKWS5resetEv@@Base
0000000000546954 T _ZN2vk3enh24BCResNetExternalStateKWS5scoreEPKf@@Base
0000000000546630 T _ZN2vk3enh24BCResNetExternalStateKWS5scoreEPKi@@Base
00000000005462a8 T _ZN2vk3enh24BCResNetExternalStateKWS5scoreEPKs@@Base
0000000000545d7c T _ZN2vk3enh24BCResNetExternalStateKWSC1ERKNS0_6ConfigE@@Base
0000000000545d7c T _ZN2vk3enh24BCResNetExternalStateKWSC2ERKNS0_6ConfigE@@Base
0000000000547fb4 W _ZN2vk3enh24BCResNetExternalStateKWSD0Ev@@Base
0000000000547e28 W _ZN2vk3enh24BCResNetExternalStateKWSD2Ev@@Base
0000000000188684 T _ZN2vk3enh24DiarizationEngineFactory15createAlgorithmERKNS0_6ConfigE@@Base
00000000001c5124 T _ZN2vk3enh24TfLiteInterpreterWrapper6invokeEv@@Base
00000000001c5134 T _ZN2vk3enh24TfLiteInterpreterWrapper6tensorEi@@Base
00000000001c4f28 T _ZN2vk3enh24TfLiteInterpreterWrapperC1ERKNSt6__ndk16vectorIhNS2_9allocatorIhEEEEib@@Base
00000000001c4f28 T _ZN2vk3enh24TfLiteInterpreterWrapperC2ERKNSt6__ndk16vectorIhNS2_9allocatorIhEEEEib@@Base
00000000001c32fc W _ZN2vk3enh24TfLiteInterpreterWrapperD2Ev@@Base
000000000052860c W _ZN2vk3enh2Df10acceptManyERKNSt6__ndk16vectorINS3_IfNS2_9allocatorIfEEEENS4_IS6_EEEE@@Base
0000000000528764 W _ZN2vk3enh2Df11finalizePcmEv@@Base
000000000052877c W _ZN2vk3enh2Df13handleMessageENS0_18EnhancementMessageE@@Base
0000000000528780 W _ZN2vk3enh2Df4sizeEv@@Base
0000000000528314 W _ZN2vk3enh2Df6acceptEPKfm@@Base
00000000005283dc W _ZN2vk3enh2Df6acceptEPKsm@@Base
000000000052654c W _ZN2vk3enh2Df6acceptERKNSt6__ndk16vectorIfNS2_9allocatorIfEEEE@@Base
0000000000528770 W _ZN2vk3enh2Df8finalizeEv@@Base
0000000000524f68 W _ZN2vk3enh2DfC2ERKNS0_6ConfigE@@Base
0000000000528a24 W _ZN2vk3enh2DfD0Ev@@Base
0000000000528788 W _ZN2vk3enh2DfD2Ev@@Base
00000000005477c4 W _ZN2vk3enh30BCResNetExternalStateKWSParamsC2ERKNS0_6ConfigE@@Base
0000000000547fd8 W _ZN2vk3enh30BCResNetExternalStateKWSParamsD0Ev@@Base
0000000000547b28 W _ZN2vk3enh30BCResNetExternalStateKWSParamsD2Ev@@Base
0000000000188f84 T _ZN2vk3enh31SpeakerRecognitionEngineFactory15createAlgorithmERKNS0_6ConfigE@@Base
000000000018903c T _ZN2vk3enh33SpeakerRecognitionVerifierFactory15createAlgorithmERKNS0_6ConfigE@@Base
000000000014fe10 T _ZN2vk3enh3dll10findSymbolEPvPKc@@Base
000000000014fe14 T _ZN2vk3enh3dll12getLastErrorEv@@Base
000000000014fbcc T _ZN2vk3enh3dll3Dll12findFunctionEPKc@@Base
000000000014fa28 T _ZN2vk3enh3dll3Dll4openEPKc@@Base
000000000014f9ec T _ZN2vk3enh3dll3DllC1EPKc@@Base
000000000014f9ec T _ZN2vk3enh3dll3DllC2EPKc@@Base
000000000014fdec T _ZN2vk3enh3dll7openDllEPKc@@Base
000000000014fdf4 T _ZN2vk3enh3dll8closeDllEPv@@Base
000000000014fd30 T _ZN2vk3enh3dll9DllHandle11freeLibraryEv@@Base
000000000014fd70 T _ZN2vk3enh3dll9DllHandleaSEOS2_@@Base
000000000014fcfc T _ZN2vk3enh3dll9DllHandleaSEPv@@Base
000000000014fd5c T _ZN2vk3enh3dll9DllHandleC1EOS2_@@Base
000000000014fcf4 T _ZN2vk3enh3dll9DllHandleC1EPv@@Base
000000000014fd5c T _ZN2vk3enh3dll9DllHandleC2EOS2_@@Base
000000000014fcf4 T _ZN2vk3enh3dll9DllHandleC2EPv@@Base
000000000014fdbc T _ZN2vk3enh3dll9DllHandleD1Ev@@Base
000000000014fdbc T _ZN2vk3enh3dll9DllHandleD2Ev@@Base
00000000005244c0 W _ZN2vk3enh4impl12append_to_ssILc0ERKNSt6__ndk112basic_stringIcNS3_11char_traitsIcEENS3_9allocatorIcEEEEJRA22_KcPNS3_13unordered_mapIS9_NS3_8functionIFNS3_10shared_ptrINS0_20EnhancementAlgorithmEEERKNS0_6ConfigEEEENS3_4hashIS9_EENS3_8equal_toIS9_EENS7_INS3_4pairISA_SO_EEEEEERA3_SC_SE_RSW_RA2_SC_EEEvRNS3_13basic_ostreamIcS6_EERKT0_DpOT1_@@Base
0000000000544880 W _ZN2vk3enh4impl12append_to_ssILc0ERKNSt6__ndk112basic_stringIcNS3_11char_traitsIcEENS3_9allocatorIcEEEEJRA22_KcPNS3_13unordered_mapIS9_NS3_8functionIFNS3_10shared_ptrINS0_3KWSEEERKNS0_6ConfigEEEENS3_4hashIS9_EENS3_8equal_toIS9_EENS7_INS3_4pairISA_SO_EEEEEERA3_SC_SE_RSW_RA2_SC_EEEvRNS3_13basic_ostreamIcS6_EERKT0_DpOT1_@@Base
00000000001c3c84 W _ZN2vk3enh4impl12append_to_ssILc0ERKNSt6__ndk112basic_stringIcNS3_11char_traitsIcEENS3_9allocatorIcEEEEJRA22_KcPNS3_13unordered_mapIS9_NS3_8functionIFNS3_10shared_ptrINS0_4NnetEEERKNS0_6ConfigERKNS3_6vectorIhNS7_IhEEEEEEENS3_4hashIS9_EENS3_8equal_toIS9_EENS7_INS3_4pairISA_ST_EEEEEERA3_SC_SE_RS11_RA2_SC_EEEvRNS3_13basic_ostreamIcS6_EERKT0_DpOT1_@@Base
000000000053d670 W _ZN2vk3enh4impl12append_to_ssILc0ERKNSt6__ndk112basic_stringIcNS3_11char_traitsIcEENS3_9allocatorIcEEEEJRA22_KcPNS3_13unordered_mapIS9_NS3_8functionIFNS3_10shared_ptrINS0_7AnimojiEEERKNS0_6ConfigEEEENS3_4hashIS9_EENS3_8equal_toIS9_EENS7_INS3_4pairISA_SO_EEEEEERA3_SC_SE_RSW_RA2_SC_EEEvRNS3_13basic_ostreamIcS6_EERKT0_DpOT1_@@Base
000000000052e158 W _ZN2vk3enh4impl12append_to_ssILc0ERKNSt6__ndk112basic_stringIcNS3_11char_traitsIcEENS3_9allocatorIcEEEEJRA22_KcPNS3_13unordered_mapIS9_NS3_8functionIFNS3_10shared_ptrINS0_9ResamplerEEERKNS0_6ConfigEEEENS3_4hashIS9_EENS3_8equal_toIS9_EENS7_INS3_4pairISA_SO_EEEEEERA3_SC_SE_RSW_RA2_SC_EEEvRNS3_13basic_ostreamIcS6_EERKT0_DpOT1_@@Base
00000000001c492c W _ZN2vk3enh4impl12append_to_ssILc32EPKcJRA8_S3_mRA5_S3_mEEEvRNSt6__ndk113basic_ostreamIcNS9_11char_traitsIcEEEERKT0_DpOT1_@@Base
00000000001c4a28 W _ZN2vk3enh4impl12append_to_ssILc32EPKcJRA8_S3_mRA5_S3_RmEEEvRNSt6__ndk113basic_ostreamIcNSA_11char_traitsIcEEEERKT0_DpOT1_@@Base
000000000014fc08 W _ZN2vk3enh4impl12append_to_ssILc32ERA26_KcJRPS3_RA3_S3_RKS6_EEEvRNSt6__ndk113basic_ostreamIcNSC_11char_traitsIcEEEERKT0_DpOT1_@@Base
00000000001c00b8 W _ZN2vk3enh4impl15append_iterableIRNSt6__ndk16vectorIhNS3_9allocatorIhEEEELc44EEEvRNS3_13basic_ostreamIcNS3_11char_traitsIcEEEERKT_@@Base
000000000052459c W _ZN2vk3enh4impl28append_associative_containerINSt6__ndk113unordered_mapINS3_12basic_stringIcNS3_11char_traitsIcEENS3_9allocatorIcEEEENS3_8functionIFNS3_10shared_ptrINS0_20EnhancementAlgorithmEEERKNS0_6ConfigEEEENS3_4hashISA_EENS3_8equal_toISA_EENS8_INS3_4pairIKSA_SJ_EEEEEELc0EEEvRNS3_13basic_ostreamIcS7_EERKT_@@Base
000000000054495c W _ZN2vk3enh4impl28append_associative_containerINSt6__ndk113unordered_mapINS3_12basic_stringIcNS3_11char_traitsIcEENS3_9allocatorIcEEEENS3_8functionIFNS3_10shared_ptrINS0_3KWSEEERKNS0_6ConfigEEEENS3_4hashISA_EENS3_8equal_toISA_EENS8_INS3_4pairIKSA_SJ_EEEEEELc0EEEvRNS3_13basic_ostreamIcS7_EERKT_@@Base
00000000001c3d60 W _ZN2vk3enh4impl28append_associative_containerINSt6__ndk113unordered_mapINS3_12basic_stringIcNS3_11char_traitsIcEENS3_9allocatorIcEEEENS3_8functionIFNS3_10shared_ptrINS0_4NnetEEERKNS0_6ConfigERKNS3_6vectorIhNS8_IhEEEEEEENS3_4hashISA_EENS3_8equal_toISA_EENS8_INS3_4pairIKSA_SO_EEEEEELc0EEEvRNS3_13basic_ostreamIcS7_EERKT_@@Base
000000000053d74c W _ZN2vk3enh4impl28append_associative_containerINSt6__ndk113unordered_mapINS3_12basic_stringIcNS3_11char_traitsIcEENS3_9allocatorIcEEEENS3_8functionIFNS3_10shared_ptrINS0_7AnimojiEEERKNS0_6ConfigEEEENS3_4hashISA_EENS3_8equal_toISA_EENS8_INS3_4pairIKSA_SJ_EEEEEELc0EEEvRNS3_13basic_ostreamIcS7_EERKT_@@Base
000000000052e234 W _ZN2vk3enh4impl28append_associative_containerINSt6__ndk113unordered_mapINS3_12basic_stringIcNS3_11char_traitsIcEENS3_9allocatorIcEEEENS3_8functionIFNS3_10shared_ptrINS0_9ResamplerEEERKNS0_6ConfigEEEENS3_4hashISA_EENS3_8equal_toISA_EENS8_INS3_4pairIKSA_SJ_EEEEEELc0EEEvRNS3_13basic_ostreamIcS7_EERKT_@@Base
00000000001bf3f4 T _ZN2vk3enh4Nnet10createImplERKNS0_6ConfigERKNSt6__ndk112basic_stringIcNS5_11char_traitsIcEENS5_9allocatorIcEEEE@@Base
00000000001beee8 T _ZN2vk3enh4Nnet15identifyBackendEPKh@@Base
00000000001beef8 T _ZN2vk3enh4Nnet15identifyBackendERKNSt6__ndk112basic_stringIcNS2_11char_traitsIcEENS2_9allocatorIcEEEE@@Base
000000000057d238 B _ZN2vk3enh4Nnet20BackendStringMappingE@@Base
00000000001bf180 T _ZN2vk3enh4Nnet24identifyBackendTwoStagesERKNSt6__ndk112basic_stringIcNS2_11char_traitsIcEENS2_9allocatorIcEEEE@@Base
00000000001bf250 T _ZN2vk3enh4Nnet6createERKNS0_6ConfigE@@Base
00000000001bf8a4 T _ZN2vk3enh4Nnet6createERKNS0_6ConfigERKNSt6__ndk112basic_stringIcNS5_11char_traitsIcEENS5_9allocatorIcEEEE@@Base
000000000013b164 T _ZN2vk3enh5Image10fromGpuPtrEPKviiiNS1_6FormatE@@Base
000000000013b0bc T _ZN2vk3enh5Image7fromPtrEPKhiiiNS1_6FormatE@@Base
000000000013afe8 T _ZN2vk3enh5Image8fromFileERKNSt6__ndk112basic_stringIcNS2_11char_traitsIcEENS2_9allocatorIcEEEE@@Base
0000000000195094 W _ZN2vk3enh5splitINSt6__ndk120back_insert_iteratorINS2_6vectorINS2_12basic_stringIcNS2_11char_traitsIcEENS2_9allocatorIcEEEENS8_ISA_EEEEEEEEvRKSA_cT_@@Base
000000000011d29c T _ZN2vk3enh6Config11setFieldIntERKNSt6__ndk112basic_stringIcNS2_11char_traitsIcEENS2_9allocatorIcEEEEl@@Base
000000000011d21c T _ZN2vk3enh6Config11setFieldStrERKNSt6__ndk112basic_stringIcNS2_11char_traitsIcEENS2_9allocatorIcEEEESA_@@Base
000000000011d008 T _ZN2vk3enh6Config12setFieldBoolERKNSt6__ndk112basic_stringIcNS2_11char_traitsIcEENS2_9allocatorIcEEEEb@@Base
000000000011ca64 T _ZN2vk3enh6Config13throwBadArrayERKNSt6__ndk112basic_stringIcNS2_11char_traitsIcEENS2_9allocatorIcEEEE@@Base
000000000011d338 T _ZN2vk3enh6Config14setFieldDoubleERKNSt6__ndk112basic_stringIcNS2_11char_traitsIcEENS2_9allocatorIcEEEEd@@Base
000000000011e0c0 T _ZN2vk3enh6Config15insertFieldBoolERKNSt6__ndk112basic_stringIcNS2_11char_traitsIcEENS2_9allocatorIcEEEEb@@Base
000000000011d0a4 T _ZN2vk3enh6Config15throwCantInsertERKNSt6__ndk112basic_stringIcNS2_11char_traitsIcEENS2_9allocatorIcEEEESA_@@Base
000000000011c91c T _ZN2vk3enh6Config16throwNoSuchFieldERKNSt6__ndk112basic_stringIcNS2_11char_traitsIcEENS2_9allocatorIcEEEE@@Base
000000000011dca0 T _ZN2vk3enh6Config21createConfigForModuleERKS1_RKNSt6__ndk112basic_stringIcNS4_11char_traitsIcEENS4_9allocatorIcEEEESC_@@Base
000000000011c084 T _ZN2vk3enh6ConfigC1ENS0_11ConfigInputE@@Base
000000000011c020 T _ZN2vk3enh6ConfigC1ENS0_11ConfigInputERKNSt6__ndk110shared_ptrIN3ucl3UclEEE@@Base
000000000011c084 T _ZN2vk3enh6ConfigC2ENS0_11ConfigInputE@@Base
000000000011c020 T _ZN2vk3enh6ConfigC2ENS0_11ConfigInputERKNSt6__ndk110shared_ptrIN3ucl3UclEEE@@Base
0000000000193e74 W _ZN2vk3enh6ConfigD2Ev@@Base
0000000000195650 W _ZN2vk3enh6HolderINSt6__ndk110shared_ptrINS0_13ForcedAlignerEEENS0_20ForcedAlignerFactoryEEC2ERKNS0_11ConfigInputERKb@@Base
0000000000193560 W _ZN2vk3enh6HolderINSt6__ndk110shared_ptrINS0_15AudioClassifierEEENS0_22AudioClassifierFactoryEEC2ERKNS0_11ConfigInputERKb@@Base
00000000001940c0 W _ZN2vk3enh6HolderINSt6__ndk110shared_ptrINS0_15AudioClassifierEEENS0_22AudioClassifierFactoryEED2Ev@@Base
0000000000193274 W _ZN2vk3enh6HolderINSt6__ndk110shared_ptrINS0_3ASREEENS0_10ASRFactoryEEC2ERKNS0_11ConfigInputERKb@@Base
0000000000194170 W _ZN2vk3enh6HolderINSt6__ndk110shared_ptrINS0_3ASREEENS0_10ASRFactoryEED2Ev@@Base
000000000019384c W _ZN2vk3enh6HolderINSt6__ndk110shared_ptrINS0_5PunctEEENS0_12PunctFactoryEEC2ERKNS0_11ConfigInputERKb@@Base
0000000000194010 W _ZN2vk3enh6HolderINSt6__ndk110shared_ptrINS0_5PunctEEENS0_12PunctFactoryEED2Ev@@Base
0000000000193b38 W _ZN2vk3enh6HolderINSt6__ndk110shared_ptrINS0_9ProfanityEEENS0_16ProfanityFactoryEEC2ERKNS0_11ConfigInputERKb@@Base
0000000000193f60 W _ZN2vk3enh6HolderINSt6__ndk110shared_ptrINS0_9ProfanityEEENS0_16ProfanityFactoryEED2Ev@@Base
00000000001c47e0 W _ZN2vk3enh6TensorD2Ev@@Base
00000000001c4dd8 T _ZN2vk3enh6TfLite24checkApiFullyInitializedERKNS1_3ApiE@@Base
00000000001c5164 T _ZN2vk3enh6TfLite4initEPKc@@Base
00000000001c4e8c T _ZN2vk3enh6TfLite8instanceEv@@Base
00000000001c5144 T _ZN2vk3enh6TfLiteC1Ev@@Base
00000000001c5144 T _ZN2vk3enh6TfLiteC2Ev@@Base
00000000001c514c T _ZN2vk3enh6TfLiteD1Ev@@Base
00000000001c514c T _ZN2vk3enh6TfLiteD2Ev@@Base
000000000012710c W _ZN2vk3enh7Context3setINSt6__ndk16vectorINS4_IfNS3_9allocatorIfEEEENS5_IS7_EEEEEEvRKNS3_12basic_stringIcNS3_11char_traitsIcEENS5_IcEEEEOT_@@Base
0000000000130360 T _ZN2vk3enh7decryptENSt6__ndk16vectorIhNS1_9allocatorIhEEEE@@Base
00000000001302dc T _ZN2vk3enh7encryptENSt6__ndk16vectorIhNS1_9allocatorIhEEEE@@Base
00000000001aba18 W _ZN2vk3enh7feature10melspec_dbI5PFFFTEENSt6__ndk16vectorINS5_IfNS4_9allocatorIfEEEENS6_IS8_EEEEPKfmiiiiRKNS4_12basic_stringIcNS4_11char_traitsIcEENS6_IcEEEEbSJ_fiiiR10FFTWrapperIT_E@@Base
00000000001ab2a0 W _ZN2vk3enh7feature10melspec_dbI8EigenFFTEENSt6__ndk16vectorINS5_IfNS4_9allocatorIfEEEENS6_IS8_EEEEPKfmiiiiRKNS4_12basic_stringIcNS4_11char_traitsIcEENS6_IcEEEEbSJ_fiiiR10FFTWrapperIT_E@@Base
00000000001b7258 W _ZN2vk3enh7feature4impl11pad_reflectERKN5Eigen6MatrixIfLi1ELin1ELi1ELi1ELin1EEERS5_ll@@Base
00000000001adeec T _ZN2vk3enh7feature4impl11spectrogramERKN5Eigen6MatrixINSt6__ndk17complexIfEELin1ELin1ELi1ELin1ELin1EEEf@@Base
00000000001b7484 W _ZN2vk3enh7feature4impl13pad_symmetricERKN5Eigen6MatrixIfLi1ELin1ELi1ELi1ELin1EEERS5_ll@@Base
00000000001afc3c W _ZN2vk3enh7feature4impl14melspectrogramI5PFFFTEEN5Eigen6MatrixIfLin1ELin1ELi1ELin1ELin1EEERKNS6_IfLi1ELin1ELi1ELi1ELin1EEEiiiiRKNSt6__ndk112basic_stringIcNSB_11char_traitsIcEENSB_9allocatorIcEEEEbSJ_fiiiR10FFTWrapperIT_E@@Base
00000000001afabc W _ZN2vk3enh7feature4impl14melspectrogramI8EigenFFTEEN5Eigen6MatrixIfLin1ELin1ELi1ELin1ELin1EEERKNS6_IfLi1ELin1ELi1ELi1ELin1EEEiiiiRKNSt6__ndk112basic_stringIcNSB_11char_traitsIcEENSB_9allocatorIcEEEEbSJ_fiiiR10FFTWrapperIT_E@@Base
00000000001af258 T _ZN2vk3enh7feature4impl3dctERKN5Eigen6MatrixIfLin1ELin1ELi1ELin1ELin1EEEbi@@Base
00000000001b69e4 T _ZN2vk3enh7feature4impl3padERKN5Eigen6MatrixIfLi1ELin1ELi1ELi1ELin1EEEllRKNSt6__ndk112basic_stringIcNS8_11char_traitsIcEENS8_9allocatorIcEEEEf@@Base
00000000001b79b8 W _ZN2vk3enh7feature4impl4hannElRN5Eigen6MatrixIfLi1ELin1ELi1ELi1ELin1EEE@@Base
00000000001b8c30 W _ZN2vk3enh7feature4impl4stftI5PFFFTEEN5Eigen6MatrixINSt6__ndk17complexIfEELin1ELin1ELi1ELin1ELin1EEERKNS6_IfLi1ELin1ELi1ELi1ELin1EEElllRKNS7_12basic_stringIcNS7_11char_traitsIcEENS7_9allocatorIcEEEEbSL_R10FFTWrapperIT_Eb@@Base
00000000001b8698 W _ZN2vk3enh7feature4impl4stftI8EigenFFTEEN5Eigen6MatrixINSt6__ndk17complexIfEELin1ELin1ELi1ELin1ELin1EEERKNS6_IfLi1ELin1ELi1ELi1ELin1EEElllRKNS7_12basic_stringIcNS7_11char_traitsIcEENS7_9allocatorIcEEEEbSL_R10FFTWrapperIT_Eb@@Base
00000000001b9d7c W _ZN2vk3enh7feature4impl5istftI5PFFFTEEN5Eigen6MatrixIfLi1ELin1ELi1ELi1ELin1EEERKNS6_INSt6__ndk17complexIfEELin1ELin1ELi1ELin1ELin1EEElllRKNS8_12basic_stringIcNS8_11char_traitsIcEENS8_9allocatorIcEEEEbSL_R10FFTWrapperIT_Eb@@Base
00000000001b9084 W _ZN2vk3enh7feature4impl5istftI8EigenFFTEEN5Eigen6MatrixIfLi1ELin1ELi1ELi1ELin1EEERKNS6_INSt6__ndk17complexIfEELin1ELin1ELi1ELin1ELin1EEElllRKNS8_12basic_stringIcNS8_11char_traitsIcEENS8_9allocatorIcEEEEbSL_R10FFTWrapperIT_Eb@@Base
00000000001b7fc0 W _ZN2vk3enh7feature4impl6vorbisElRN5Eigen6MatrixIfLi1ELin1ELi1ELi1ELin1EEE@@Base
00000000001b6ea4 T _ZN2vk3enh7feature4impl6windowElRKNSt6__ndk112basic_stringIcNS3_11char_traitsIcEENS3_9allocatorIcEEEE@@Base
00000000001b81f0 W _ZN2vk3enh7feature4impl7hammingElRN5Eigen6MatrixIfLi1ELin1ELi1ELi1ELin1EEE@@Base
00000000001b76a0 W _ZN2vk3enh7feature4impl8pad_edgeERKN5Eigen6MatrixIfLi1ELin1ELi1ELi1ELin1EEERS5_ll@@Base
00000000001aefec T _ZN2vk3enh7feature4impl8power2dbERKN5Eigen6MatrixIfLin1ELin1ELi1ELin1ELin1EEE@@Base
00000000001b7cb8 W _ZN2vk3enh7feature4impl9hann_sqrtElRN5Eigen6MatrixIfLi1ELin1ELi1ELi1ELin1EEE@@Base
00000000001adfbc T _ZN2vk3enh7feature4impl9melfilterEiiiii@@Base
00000000001acf94 W _ZN2vk3enh7feature4mfccI5PFFFTEENSt6__ndk16vectorINS5_IfNS4_9allocatorIfEEEENS6_IS8_EEEEPKfmiiiiRKNS4_12basic_stringIcNS4_11char_traitsIcEENS6_IcEEEEbSJ_fiiiibiR10FFTWrapperIT_E@@Base
00000000001ac8e8 W _ZN2vk3enh7feature4mfccI8EigenFFTEENSt6__ndk16vectorINS5_IfNS4_9allocatorIfEEEENS6_IS8_EEEEPKfmiiiiRKNS4_12basic_stringIcNS4_11char_traitsIcEENS6_IcEEEEbSJ_fiiiibiR10FFTWrapperIT_E@@Base
00000000001aa878 W _ZN2vk3enh7feature4stftI5PFFFTEENSt6__ndk16vectorINS5_INS4_7complexIfEENS4_9allocatorIS7_EEEENS8_ISA_EEEEPKfmiiiRKNS4_12basic_stringIcNS4_11char_traitsIcEENS8_IcEEEEbSL_R10FFTWrapperIT_Ebb@@Base
00000000001aa298 W _ZN2vk3enh7feature4stftI8EigenFFTEENSt6__ndk16vectorINS5_INS4_7complexIfEENS4_9allocatorIS7_EEEENS8_ISA_EEEEPKfmiiiRKNS4_12basic_stringIcNS4_11char_traitsIcEENS8_IcEEEEbSL_R10FFTWrapperIT_Ebb@@Base
00000000001aafbc W _ZN2vk3enh7feature5istftI5PFFFTEENSt6__ndk16vectorIfNS4_9allocatorIfEEEEPKNS4_7complexIfEEmmiiiRKNS4_12basic_stringIcNS4_11char_traitsIcEENS6_IcEEEEbSJ_R10FFTWrapperIT_Ebb@@Base
00000000001aacd8 W _ZN2vk3enh7feature5istftI8EigenFFTEENSt6__ndk16vectorIfNS4_9allocatorIfEEEEPKNS4_7complexIfEEmmiiiRKNS4_12basic_stringIcNS4_11char_traitsIcEENS6_IcEEEEbSJ_R10FFTWrapperIT_Ebb@@Base
00000000001ac47c W _ZN2vk3enh7feature7melspecI5PFFFTEENSt6__ndk16vectorINS5_IfNS4_9allocatorIfEEEENS6_IS8_EEEEPKfmiiiiRKNS4_12basic_stringIcNS4_11char_traitsIcEENS6_IcEEEEbSJ_fiiiR10FFTWrapperIT_E@@Base
00000000001ac010 W _ZN2vk3enh7feature7melspecI8EigenFFTEENSt6__ndk16vectorINS5_IfNS4_9allocatorIfEEEENS6_IS8_EEEEPKfmiiiiRKNS4_12basic_stringIcNS4_11char_traitsIcEENS6_IcEEEEbSJ_fiiiR10FFTWrapperIT_E@@Base
000000000052b7ac T _ZN2vk3enh7GTCRNTF10acceptManyERKNSt6__ndk16vectorINS3_IfNS2_9allocatorIfEEEENS4_IS6_EEEE@@Base
000000000052b904 T _ZN2vk3enh7GTCRNTF11finalizePcmEv@@Base
000000000052a3ec T _ZN2vk3enh7GTCRNTF12resetBuffersEv@@Base
000000000052be7c W _ZN2vk3enh7GTCRNTF13handleMessageENS0_18EnhancementMessageE@@Base
000000000052b91c T _ZN2vk3enh7GTCRNTF4sizeEv@@Base
000000000052a4a4 T _ZN2vk3enh7GTCRNTF6acceptEPKfm@@Base
000000000052b57c T _ZN2vk3enh7GTCRNTF6acceptEPKsm@@Base
000000000052a488 T _ZN2vk3enh7GTCRNTF6acceptERKNSt6__ndk16vectorIfNS2_9allocatorIfEEEE@@Base
000000000052b910 T _ZN2vk3enh7GTCRNTF8finalizeEv@@Base
0000000000529c88 T _ZN2vk3enh7GTCRNTFC1ERKNS0_6ConfigE@@Base
0000000000529c88 T _ZN2vk3enh7GTCRNTFC2ERKNS0_6ConfigE@@Base
000000000052c094 W _ZN2vk3enh7GTCRNTFD0Ev@@Base
000000000052be80 W _ZN2vk3enh7GTCRNTFD2Ev@@Base
000000000018af68 W _ZN2vk3enh8AECQueueIfE4pullEv@@Base
000000000018af4c W _ZN2vk3enh8AECQueueIfE5clearEv@@Base
000000000018adb0 W _ZN2vk3enh8AECQueueIfE7pushLpbEONSt6__ndk16vectorIfNS3_9allocatorIfEEEE@@Base
000000000018ac54 W _ZN2vk3enh8AECQueueIfE7pushMicEONSt6__ndk16vectorIfNS3_9allocatorIfEEEE@@Base
000000000018a8f0 W _ZN2vk3enh8AECQueueIfEC1EONSt6__ndk110shared_ptrINS0_3AECEEEm@@Base
000000000018a8f0 W _ZN2vk3enh8AECQueueIfEC2EONSt6__ndk110shared_ptrINS0_3AECEEEm@@Base
000000000018ab34 W _ZN2vk3enh8AECQueueIfED1Ev@@Base
000000000018ab34 W _ZN2vk3enh8AECQueueIfED2Ev@@Base
000000000018a754 W _ZN2vk3enh8AECQueueIsE4pullEv@@Base
000000000018a738 W _ZN2vk3enh8AECQueueIsE5clearEv@@Base
000000000018a59c W _ZN2vk3enh8AECQueueIsE7pushLpbEONSt6__ndk16vectorIsNS3_9allocatorIsEEEE@@Base
000000000018a440 W _ZN2vk3enh8AECQueueIsE7pushMicEONSt6__ndk16vectorIsNS3_9allocatorIsEEEE@@Base
000000000018a0dc W _ZN2vk3enh8AECQueueIsEC1EONSt6__ndk110shared_ptrINS0_3AECEEEm@@Base
000000000018a0dc W _ZN2vk3enh8AECQueueIsEC2EONSt6__ndk110shared_ptrINS0_3AECEEEm@@Base
000000000018a320 W _ZN2vk3enh8AECQueueIsED1Ev@@Base
000000000018a320 W _ZN2vk3enh8AECQueueIsED2Ev@@Base
000000000013570c T _ZN2vk3enh8CPUImageC1EPKhiiiNS0_5Image6FormatE@@Base
000000000013570c T _ZN2vk3enh8CPUImageC2EPKhiiiNS0_5Image6FormatE@@Base
000000000013576c T _ZN2vk3enh8CPUImageD1Ev@@Base
000000000013576c T _ZN2vk3enh8CPUImageD2Ev@@Base
0000000000525dc0 W _ZN2vk3enh8DfParamsC2ERKNS0_6ConfigE@@Base
0000000000528c64 W _ZN2vk3enh8DfParamsD0Ev@@Base
0000000000526458 W _ZN2vk3enh8DfParamsD2Ev@@Base
000000000019a414 W _ZN2vk3enh8RegistryINSt6__ndk112basic_stringIcNS2_11char_traitsIcEENS2_9allocatorIcEEEEFNS2_10shared_ptrINS0_10AudioMixerEEERKNS0_6ConfigEEE11createClassIJSE_EEESB_RKS8_DpOT_@@Base
000000000019a910 W _ZN2vk3enh8RegistryINSt6__ndk112basic_stringIcNS2_11char_traitsIcEENS2_9allocatorIcEEEEFNS2_10shared_ptrINS0_10AudioMixerEEERKNS0_6ConfigEEE7classesEv@@Base
0000000000199b14 W _ZN2vk3enh8RegistryINSt6__ndk112basic_stringIcNS2_11char_traitsIcEENS2_9allocatorIcEEEEFNS2_10shared_ptrINS0_11AudioFilterEEERKNS0_6ConfigEEE11createClassIJSE_EEESB_RKS8_DpOT_@@Base
000000000019a010 W _ZN2vk3enh8RegistryINSt6__ndk112basic_stringIcNS2_11char_traitsIcEENS2_9allocatorIcEEEEFNS2_10shared_ptrINS0_11AudioFilterEEERKNS0_6ConfigEEE7classesEv@@Base
0000000000186c3c W _ZN2vk3enh8RegistryINSt6__ndk112basic_stringIcNS2_11char_traitsIcEENS2_9allocatorIcEEEEFNS2_10shared_ptrINS0_13ForcedAlignerEEERKNS0_6ConfigEEE11createClassIJSE_EEESB_RKS8_DpOT_@@Base
0000000000187138 W _ZN2vk3enh8RegistryINSt6__ndk112basic_stringIcNS2_11char_traitsIcEENS2_9allocatorIcEEEEFNS2_10shared_ptrINS0_13ForcedAlignerEEERKNS0_6ConfigEEE7classesEv@@Base
000000000018513c W _ZN2vk3enh8RegistryINSt6__ndk112basic_stringIcNS2_11char_traitsIcEENS2_9allocatorIcEEEEFNS2_10shared_ptrINS0_15AudioClassifierEEERKNS0_6ConfigEEE11createClassIJSE_EEESB_RKS8_DpOT_@@Base
0000000000185638 W _ZN2vk3enh8RegistryINSt6__ndk112basic_stringIcNS2_11char_traitsIcEENS2_9allocatorIcEEEEFNS2_10shared_ptrINS0_15AudioClassifierEEERKNS0_6ConfigEEE7classesEv@@Base
000000000018bb5c W _ZN2vk3enh8RegistryINSt6__ndk112basic_stringIcNS2_11char_traitsIcEENS2_9allocatorIcEEEEFNS2_10shared_ptrINS0_15SuperResolutionEEERKNS0_6ConfigEEE11createClassIJSE_EEESB_RKS8_DpOT_@@Base
000000000018c058 W _ZN2vk3enh8RegistryINSt6__ndk112basic_stringIcNS2_11char_traitsIcEENS2_9allocatorIcEEEEFNS2_10shared_ptrINS0_15SuperResolutionEEERKNS0_6ConfigEEE7classesEv@@Base
000000000019ad14 W _ZN2vk3enh8RegistryINSt6__ndk112basic_stringIcNS2_11char_traitsIcEENS2_9allocatorIcEEEEFNS2_10shared_ptrINS0_16AudioDelayBufferEEERKNS0_6ConfigEEE11createClassIJSE_EEESB_RKS8_DpOT_@@Base
000000000019b210 W _ZN2vk3enh8RegistryINSt6__ndk112basic_stringIcNS2_11char_traitsIcEENS2_9allocatorIcEEEEFNS2_10shared_ptrINS0_16AudioDelayBufferEEERKNS0_6ConfigEEE7classesEv@@Base
000000000018873c W _ZN2vk3enh8RegistryINSt6__ndk112basic_stringIcNS2_11char_traitsIcEENS2_9allocatorIcEEEEFNS2_10shared_ptrINS0_17DiarizationEngineEEERKNS0_6ConfigEEE11createClassIJSE_EEESB_RKS8_DpOT_@@Base
0000000000188c38 W _ZN2vk3enh8RegistryINSt6__ndk112basic_stringIcNS2_11char_traitsIcEENS2_9allocatorIcEEEEFNS2_10shared_ptrINS0_17DiarizationEngineEEERKNS0_6ConfigEEE7classesEv@@Base
0000000000185a3c W _ZN2vk3enh8RegistryINSt6__ndk112basic_stringIcNS2_11char_traitsIcEENS2_9allocatorIcEEEEFNS2_10shared_ptrINS0_20EnhancementAlgorithmEEERKNS0_6ConfigEEE11createClassIJSE_EEESB_RKS8_DpOT_@@Base
0000000000524100 W _ZN2vk3enh8RegistryINSt6__ndk112basic_stringIcNS2_11char_traitsIcEENS2_9allocatorIcEEEEFNS2_10shared_ptrINS0_20EnhancementAlgorithmEEERKNS0_6ConfigEEE13registerClassERKS8_RKNS2_8functionISF_EE@@Base
0000000000185f38 W _ZN2vk3enh8RegistryINSt6__ndk112basic_stringIcNS2_11char_traitsIcEENS2_9allocatorIcEEEEFNS2_10shared_ptrINS0_20EnhancementAlgorithmEEERKNS0_6ConfigEEE7classesEv@@Base
00000000001892fc W _ZN2vk3enh8RegistryINSt6__ndk112basic_stringIcNS2_11char_traitsIcEENS2_9allocatorIcEEEEFNS2_10shared_ptrINS0_24SpeakerRecognitionEngineEEERKNS0_6ConfigEEE11createClassIJSE_EEESB_RKS8_DpOT_@@Base
0000000000189a44 W _ZN2vk3enh8RegistryINSt6__ndk112basic_stringIcNS2_11char_traitsIcEENS2_9allocatorIcEEEEFNS2_10shared_ptrINS0_24SpeakerRecognitionEngineEEERKNS0_6ConfigEEE7classesEv@@Base
00000000001896a0 W _ZN2vk3enh8RegistryINSt6__ndk112basic_stringIcNS2_11char_traitsIcEENS2_9allocatorIcEEEEFNS2_10shared_ptrINS0_26SpeakerRecognitionVerifierEEERKNS0_6ConfigEEE11createClassIJSE_EEESB_RKS8_DpOT_@@Base
0000000000189d90 W _ZN2vk3enh8RegistryINSt6__ndk112basic_stringIcNS2_11char_traitsIcEENS2_9allocatorIcEEEEFNS2_10shared_ptrINS0_26SpeakerRecognitionVerifierEEERKNS0_6ConfigEEE7classesEv@@Base
000000000018b25c W _ZN2vk3enh8RegistryINSt6__ndk112basic_stringIcNS2_11char_traitsIcEENS2_9allocatorIcEEEEFNS2_10shared_ptrINS0_3AECEEERKNS0_6ConfigEEE11createClassIJSE_EEESB_RKS8_DpOT_@@Base
000000000018b758 W _ZN2vk3enh8RegistryINSt6__ndk112basic_stringIcNS2_11char_traitsIcEENS2_9allocatorIcEEEEFNS2_10shared_ptrINS0_3AECEEERKNS0_6ConfigEEE7classesEv@@Base
000000000018633c W _ZN2vk3enh8RegistryINSt6__ndk112basic_stringIcNS2_11char_traitsIcEENS2_9allocatorIcEEEEFNS2_10shared_ptrINS0_3AGCEEERKNS0_6ConfigEEE11createClassIJSE_EEESB_RKS8_DpOT_@@Base
0000000000186838 W _ZN2vk3enh8RegistryINSt6__ndk112basic_stringIcNS2_11char_traitsIcEENS2_9allocatorIcEEEEFNS2_10shared_ptrINS0_3AGCEEERKNS0_6ConfigEEE7classesEv@@Base
000000000018cd5c W _ZN2vk3enh8RegistryINSt6__ndk112basic_stringIcNS2_11char_traitsIcEENS2_9allocatorIcEEEEFNS2_10shared_ptrINS0_3ASREEERKNS0_6ConfigEEE11createClassIJSE_EEESB_RKS8_DpOT_@@Base
000000000018d258 W _ZN2vk3enh8RegistryINSt6__ndk112basic_stringIcNS2_11char_traitsIcEENS2_9allocatorIcEEEEFNS2_10shared_ptrINS0_3ASREEERKNS0_6ConfigEEE7classesEv@@Base
000000000019d058 W _ZN2vk3enh8RegistryINSt6__ndk112basic_stringIcNS2_11char_traitsIcEENS2_9allocatorIcEEEEFNS2_10shared_ptrINS0_3KWSEEERKNS0_6ConfigEEE11createClassIJSE_EEESB_RKS8_DpOT_@@Base
0000000000543d44 W _ZN2vk3enh8RegistryINSt6__ndk112basic_stringIcNS2_11char_traitsIcEENS2_9allocatorIcEEEEFNS2_10shared_ptrINS0_3KWSEEERKNS0_6ConfigEEE13registerClassERKS8_RKNS2_8functionISF_EE@@Base
000000000019d554 W _ZN2vk3enh8RegistryINSt6__ndk112basic_stringIcNS2_11char_traitsIcEENS2_9allocatorIcEEEEFNS2_10shared_ptrINS0_3KWSEEERKNS0_6ConfigEEE7classesEv@@Base
000000000018c45c W _ZN2vk3enh8RegistryINSt6__ndk112basic_stringIcNS2_11char_traitsIcEENS2_9allocatorIcEEEEFNS2_10shared_ptrINS0_3VfiEEERKNS0_6ConfigEEE11createClassIJSE_EEESB_RKS8_DpOT_@@Base
000000000018c958 W _ZN2vk3enh8RegistryINSt6__ndk112basic_stringIcNS2_11char_traitsIcEENS2_9allocatorIcEEEEFNS2_10shared_ptrINS0_3VfiEEERKNS0_6ConfigEEE7classesEv@@Base
00000000001bfb0c W _ZN2vk3enh8RegistryINSt6__ndk112basic_stringIcNS2_11char_traitsIcEENS2_9allocatorIcEEEEFNS2_10shared_ptrINS0_4NnetEEERKNS0_6ConfigERKNS2_6vectorIhNS6_IhEEEEEE11createClassIJRSC_RSH_EEESB_RKS8_DpOT_@@Base
00000000001c28fc W _ZN2vk3enh8RegistryINSt6__ndk112basic_stringIcNS2_11char_traitsIcEENS2_9allocatorIcEEEEFNS2_10shared_ptrINS0_4NnetEEERKNS0_6ConfigERKNS2_6vectorIhNS6_IhEEEEEE13registerClassERKS8_RKNS2_8functionISK_EE@@Base
00000000001c0038 W _ZN2vk3enh8RegistryINSt6__ndk112basic_stringIcNS2_11char_traitsIcEENS2_9allocatorIcEEEEFNS2_10shared_ptrINS0_4NnetEEERKNS0_6ConfigERKNS2_6vectorIhNS6_IhEEEEEE7classesEv@@Base
0000000000198914 W _ZN2vk3enh8RegistryINSt6__ndk112basic_stringIcNS2_11char_traitsIcEENS2_9allocatorIcEEEEFNS2_10shared_ptrINS0_5CodecEEERKNS0_6ConfigEEE11createClassIJSE_EEESB_RKS8_DpOT_@@Base
0000000000198e10 W _ZN2vk3enh8RegistryINSt6__ndk112basic_stringIcNS2_11char_traitsIcEENS2_9allocatorIcEEEEFNS2_10shared_ptrINS0_5CodecEEERKNS0_6ConfigEEE7classesEv@@Base
0000000000197714 W _ZN2vk3enh8RegistryINSt6__ndk112basic_stringIcNS2_11char_traitsIcEENS2_9allocatorIcEEEEFNS2_10shared_ptrINS0_5PunctEEERKNS0_6ConfigEEE11createClassIJSE_EEESB_RKS8_DpOT_@@Base
0000000000197c10 W _ZN2vk3enh8RegistryINSt6__ndk112basic_stringIcNS2_11char_traitsIcEENS2_9allocatorIcEEEEFNS2_10shared_ptrINS0_5PunctEEERKNS0_6ConfigEEE7classesEv@@Base
0000000000199214 W _ZN2vk3enh8RegistryINSt6__ndk112basic_stringIcNS2_11char_traitsIcEENS2_9allocatorIcEEEEFNS2_10shared_ptrINS0_6EffectEEERKNS0_6ConfigEEE11createClassIJSE_EEESB_RKS8_DpOT_@@Base
0000000000199710 W _ZN2vk3enh8RegistryINSt6__ndk112basic_stringIcNS2_11char_traitsIcEENS2_9allocatorIcEEEEFNS2_10shared_ptrINS0_6EffectEEERKNS0_6ConfigEEE7classesEv@@Base
0000000000196e14 W _ZN2vk3enh8RegistryINSt6__ndk112basic_stringIcNS2_11char_traitsIcEENS2_9allocatorIcEEEEFNS2_10shared_ptrINS0_7AnimojiEEERKNS0_6ConfigEEE11createClassIJSE_EEESB_RKS8_DpOT_@@Base
000000000053d2b0 W _ZN2vk3enh8RegistryINSt6__ndk112basic_stringIcNS2_11char_traitsIcEENS2_9allocatorIcEEEEFNS2_10shared_ptrINS0_7AnimojiEEERKNS0_6ConfigEEE13registerClassERKS8_RKNS2_8functionISF_EE@@Base
0000000000197310 W _ZN2vk3enh8RegistryINSt6__ndk112basic_stringIcNS2_11char_traitsIcEENS2_9allocatorIcEEEEFNS2_10shared_ptrINS0_7AnimojiEEERKNS0_6ConfigEEE7classesEv@@Base
0000000000187e3c W _ZN2vk3enh8RegistryINSt6__ndk112basic_stringIcNS2_11char_traitsIcEENS2_9allocatorIcEEEEFNS2_10shared_ptrINS0_8PipelineEEERKNS0_6ConfigEEE11createClassIJSE_EEESB_RKS8_DpOT_@@Base
0000000000188338 W _ZN2vk3enh8RegistryINSt6__ndk112basic_stringIcNS2_11char_traitsIcEENS2_9allocatorIcEEEEFNS2_10shared_ptrINS0_8PipelineEEERKNS0_6ConfigEEE7classesEv@@Base
0000000000198014 W _ZN2vk3enh8RegistryINSt6__ndk112basic_stringIcNS2_11char_traitsIcEENS2_9allocatorIcEEEEFNS2_10shared_ptrINS0_9ProfanityEEERKNS0_6ConfigEEE11createClassIJSE_EEESB_RKS8_DpOT_@@Base
0000000000198510 W _ZN2vk3enh8RegistryINSt6__ndk112basic_stringIcNS2_11char_traitsIcEENS2_9allocatorIcEEEEFNS2_10shared_ptrINS0_9ProfanityEEERKNS0_6ConfigEEE7classesEv@@Base
000000000018753c W _ZN2vk3enh8RegistryINSt6__ndk112basic_stringIcNS2_11char_traitsIcEENS2_9allocatorIcEEEEFNS2_10shared_ptrINS0_9ResamplerEEERKNS0_6ConfigEEE11createClassIJSE_EEESB_RKS8_DpOT_@@Base
000000000052d05c W _ZN2vk3enh8RegistryINSt6__ndk112basic_stringIcNS2_11char_traitsIcEENS2_9allocatorIcEEEEFNS2_10shared_ptrINS0_9ResamplerEEERKNS0_6ConfigEEE13registerClassERKS8_RKNS2_8functionISF_EE@@Base
0000000000187a38 W _ZN2vk3enh8RegistryINSt6__ndk112basic_stringIcNS2_11char_traitsIcEENS2_9allocatorIcEEEEFNS2_10shared_ptrINS0_9ResamplerEEERKNS0_6ConfigEEE7classesEv@@Base
000000000012c030 T _ZN2vk3enh9AudioMetaC1Ei@@Base
000000000012c038 T _ZN2vk3enh9AudioMetaC1ERKS1_@@Base
000000000012c030 T _ZN2vk3enh9AudioMetaC2Ei@@Base
000000000012c038 T _ZN2vk3enh9AudioMetaC2ERKS1_@@Base
00000000001b85e4 W _ZN2vk3enh9safe_findINSt6__ndk113unordered_mapINS2_12basic_stringIcNS2_11char_traitsIcEENS2_9allocatorIcEEEEPFvlRN5Eigen6MatrixIfLi1ELin1ELi1ELi1ELin1EEEENS2_4hashIS9_EENS2_8equal_toIS9_EENS7_INS2_4pairIKS9_SF_EEEEEES9_EERDaRKT_RKT0_@@Base
00000000001b7904 W _ZN2vk3enh9safe_findINSt6__ndk113unordered_mapINS2_12basic_stringIcNS2_11char_traitsIcEENS2_9allocatorIcEEEEPFvRKN5Eigen6MatrixIfLi1ELin1ELi1ELi1ELin1EEERSC_llENS2_4hashIS9_EENS2_8equal_toIS9_EENS7_INS2_4pairIKS9_SH_EEEEEES9_EERDaRKT_RKT0_@@Base
000000000014feb8 T _ZN2vk3enh9ScopedLog11setLogLevelENS1_5LevelE@@Base
000000000014ff88 T _ZN2vk3enh9ScopedLog12setVerbosityENS1_9VerbosityE@@Base
000000000014fed0 T _ZN2vk3enh9ScopedLog17enableFileLoggingERKNSt6__ndk112basic_stringIcNS2_11char_traitsIcEENS2_9allocatorIcEEEE@@Base
000000000014fed8 T _ZN2vk3enh9ScopedLog18disableFileLoggingEv@@Base
00000000001519d4 W _ZN2vk3enh9ScopedLog4Impl12updateFormatEv@@Base
0000000000150a20 W _ZN2vk3enh9ScopedLog4Impl17enableFileLoggingERKNSt6__ndk112basic_stringIcNS3_11char_traitsIcEENS3_9allocatorIcEEEE@@Base
0000000000150b40 W _ZN2vk3enh9ScopedLog4Impl18disableFileLoggingEv@@Base
00000000001769ac W _ZN2vk3enh9ScopedLog4Impl3logEN6spdlog5level10level_enumEPKciS7_RKNSt6__ndk112basic_stringIcNS8_11char_traitsIcEENS8_9allocatorIcEEEE@@Base
0000000000178d04 W _ZN2vk3enh9ScopedLog4ImplC2ENSt6__ndk112basic_stringIcNS3_11char_traitsIcEENS3_9allocatorIcEEEE@@Base
000000000014fee0 T _ZN2vk3enh9ScopedLog4infoEPKciS3_RKNSt6__ndk112basic_stringIcNS4_11char_traitsIcEENS4_9allocatorIcEEEE@@Base
000000000014fefc T _ZN2vk3enh9ScopedLog4warnEPKciS3_RKNSt6__ndk112basic_stringIcNS4_11char_traitsIcEENS4_9allocatorIcEEEE@@Base
000000000014ff34 T _ZN2vk3enh9ScopedLog5debugEPKciS3_RKNSt6__ndk112basic_stringIcNS4_11char_traitsIcEENS4_9allocatorIcEEEE@@Base
000000000014ff18 T _ZN2vk3enh9ScopedLog5errorEPKciS3_RKNSt6__ndk112basic_stringIcNS4_11char_traitsIcEENS4_9allocatorIcEEEE@@Base
0000000000179624 W _ZN2vk3enh9ScopedLog5Level10fromStringERKNSt6__ndk112basic_stringIcNS3_11char_traitsIcEENS3_9allocatorIcEEEE@@Base
000000000017c7c4 W _ZN2vk3enh9ScopedLog5Level16initNames2ValuesEv@@Base
000000000014ff50 T _ZN2vk3enh9ScopedLog5traceEPKciS3_RKNSt6__ndk112basic_stringIcNS4_11char_traitsIcEENS4_9allocatorIcEEEE@@Base
000000000014ff6c T _ZN2vk3enh9ScopedLog8criticalEPKciS3_RKNSt6__ndk112basic_stringIcNS4_11char_traitsIcEENS4_9allocatorIcEEEE@@Base
0000000000179778 W _ZN2vk3enh9ScopedLog9Verbosity10fromStringERKNSt6__ndk112basic_stringIcNS3_11char_traitsIcEENS3_9allocatorIcEEEE@@Base
000000000017d384 W _ZN2vk3enh9ScopedLog9Verbosity16initNames2ValuesEv@@Base
000000000014fe1c T _ZN2vk3enh9ScopedLogC1ENSt6__ndk112basic_stringIcNS2_11char_traitsIcEENS2_9allocatorIcEEEE@@Base
000000000014fe1c T _ZN2vk3enh9ScopedLogC2ENSt6__ndk112basic_stringIcNS2_11char_traitsIcEENS2_9allocatorIcEEEE@@Base
000000000014feb0 T _ZN2vk3enh9ScopedLogD1Ev@@Base
000000000014feb0 T _ZN2vk3enh9ScopedLogD2Ev@@Base
00000000001c0a80 T _ZN2vk3enh9TensorMap10pushTensorERKNSt6__ndk110shared_ptrINS0_6TensorEEERKNS3_INS0_11TensorIndexEEE@@Base
00000000001c0af4 T _ZN2vk3enh9TensorMap9setValuesERKNSt6__ndk16vectorINS0_4BlobENS2_9allocatorIS4_EEEE@@Base
00000000001c31b8 W _ZN2vk3enh9TensorMapaSEOS1_@@Base
00000000001c2cbc W _ZN2vk3enh9TensorMapD2Ev@@Base
0000000000538e8c T _ZN2vk3enh9Wav2LipV111animateNextERKNS0_11AudioBufferERKNSt6__ndk16vectorIfNS5_9allocatorIfEEEE@@Base
0000000000539e7c T _ZN2vk3enh9Wav2LipV113handleMessageENSt6__ndk110shared_ptrINS0_16animoji_messages14AnimojiMessageEEE@@Base
0000000000539fa0 T _ZN2vk3enh9Wav2LipV1C1ERKNS0_6ConfigE@@Base
0000000000539fa0 T _ZN2vk3enh9Wav2LipV1C2ERKNS0_6ConfigE@@Base
000000000053a590 W _ZN2vk3enh9Wav2LipV1D0Ev@@Base
000000000053a460 W _ZN2vk3enh9Wav2LipV1D2Ev@@Base
000000000053a8c4 T _ZN2vk3enh9Wav2LipV311animateNextERKNS0_11AudioBufferERKNSt6__ndk16vectorIfNS5_9allocatorIfEEEE@@Base
000000000053b5bc T _ZN2vk3enh9Wav2LipV313handleMessageENSt6__ndk110shared_ptrINS0_16animoji_messages14AnimojiMessageEEE@@Base
000000000053b6e0 T _ZN2vk3enh9Wav2LipV3C1ERKNS0_6ConfigE@@Base
000000000053b6e0 T _ZN2vk3enh9Wav2LipV3C2ERKNS0_6ConfigE@@Base
000000000053bc48 W _ZN2vk3enh9Wav2LipV3D0Ev@@Base
000000000053bb28 W _ZN2vk3enh9Wav2LipV3D2Ev@@Base
000000000053bdf4 T _ZN2vk3enh9Wav2LipV411animateNextERKNS0_11AudioBufferERKNSt6__ndk16vectorIfNS5_9allocatorIfEEEE@@Base
000000000053c78c T _ZN2vk3enh9Wav2LipV413handleMessageENSt6__ndk110shared_ptrINS0_16animoji_messages14AnimojiMessageEEE@@Base
000000000053c8b0 T _ZN2vk3enh9Wav2LipV4C1ERKNS0_6ConfigE@@Base
000000000053c8b0 T _ZN2vk3enh9Wav2LipV4C2ERKNS0_6ConfigE@@Base
000000000053ce3c W _ZN2vk3enh9Wav2LipV4D0Ev@@Base
000000000053cd1c W _ZN2vk3enh9Wav2LipV4D2Ev@@Base
000000000011e1f4 T _ZN2vk3enhlsERNSt6__ndk113basic_ostreamIcNS1_11char_traitsIcEEEERKNS0_6ConfigE@@Base
000000000012fa8c T _ZN6CutterC1ERKN2vk3enh6ConfigE@@Base
000000000012fa8c T _ZN6CutterC2ERKN2vk3enh6ConfigE@@Base
000000000018eedc T _ZNK2vk3enh10AsrService12getVadEventsERKNS0_11AudioBufferE@@Base
0000000000191984 T _ZNK2vk3enh10AsrService15filterProfanityERKNS0_11AlignResultERKNS0_3CtxE@@Base
000000000018e9e8 T _ZNK2vk3enh10AsrService15processInternalERKNS0_11AudioBufferERKNS0_3CtxE@@Base
0000000000191db0 T _ZNK2vk3enh10AsrService17getAcousticEventsERKNS0_11AlignResultERKNS0_11AudioBufferERKNSt6__ndk16vectorINS0_9TimestampENS8_9allocatorISA_EEEERKNS0_3CtxE@@Base
000000000018f054 T _ZNK2vk3enh10AsrService3cutERKNS0_11AudioBufferERKNSt6__ndk16vectorINS6_IfNS5_9allocatorIfEEEENS7_IS9_EEEE@@Base
000000000018fc54 T _ZNK2vk3enh10AsrService5alignERKNSt6__ndk16vectorINS0_11AudioBufferENS2_9allocatorIS4_EEEERKNS3_INS2_10unique_ptrINS0_13ASRPredictionENS2_14default_deleteISB_EEEENS5_ISE_EEEERKNS0_3CtxE@@Base
000000000018f170 T _ZNK2vk3enh10AsrService7predictERKNSt6__ndk16vectorINS0_11AudioBufferENS2_9allocatorIS4_EEEE@@Base
000000000018e7c4 T _ZNK2vk3enh10AsrService7processERKNS0_11AudioBufferERKNS0_3CtxE@@Base
0000000000190728 T _ZNK2vk3enh10AsrService9aggregateERKNS0_11AudioBufferERKNSt6__ndk14pairINS5_6vectorIS2_NS5_9allocatorIS2_EEEENS7_INS0_9TimestampENS8_ISB_EEEEEERKNS7_INS0_11AlignResultENS8_ISH_EEEERKNS5_12basic_stringIcNS5_11char_traitsIcEENS8_IcEEEERKNS0_3CtxE@@Base
00000000001903e4 T _ZNK2vk3enh10AsrService9punctuateERKNSt6__ndk16vectorINS0_11AlignResultENS2_9allocatorIS4_EEEERKNS3_INS2_10unique_ptrINS0_13ASRPredictionENS2_14default_deleteISB_EEEENS5_ISE_EEEE@@Base
000000000012aa68 T _ZNK2vk3enh11AudioBuffer12mirrorFloatsEb@@Base
000000000012aa30 T _ZNK2vk3enh11AudioBuffer3pcmEv@@Base
000000000012c024 T _ZNK2vk3enh11AudioBuffer4metaEv@@Base
000000000012bd8c T _ZNK2vk3enh11AudioBuffer4sizeEv@@Base
000000000012b020 T _ZNK2vk3enh11AudioBuffer5writeERKNSt6__ndk112basic_stringIcNS2_11char_traitsIcEENS2_9allocatorIcEEEENS0_24AudioBufferFileInputTypeE@@Base
000000000012b2f0 T _ZNK2vk3enh11AudioBuffer5writeERNSt6__ndk113basic_ostreamIcNS2_11char_traitsIcEEEENS0_24AudioBufferFileInputTypeE@@Base
000000000012ab88 T _ZNK2vk3enh11AudioBuffer6floatsEv@@Base
000000000012afc0 T _ZNK2vk3enh11AudioBuffer6pcmRawEv@@Base
000000000012bfdc T _ZNK2vk3enh11AudioBuffer8durationEv@@Base
000000000012b438 T _ZNK2vk3enh11AudioBuffer8writeWavERNSt6__ndk113basic_ostreamIcNS2_11char_traitsIcEEEE@@Base
000000000012ae4c T _ZNK2vk3enh11AudioBuffer9floatsMutEv@@Base
000000000012b008 T _ZNK2vk3enh11AudioBuffer9floatsRawEv@@Base
000000000012acfc T _ZNK2vk3enh11AudioBuffer9mirrorPcmEb@@Base
000000000019ecbc T _ZNK2vk3enh11MfccWrapper4optsEv@@Base
000000000019df74 T _ZNK2vk3enh12FBankWrapper4optsEv@@Base
000000000012c26c T _ZNK2vk3enh15AudioBufferView3endEv@@Base
000000000012c088 T _ZNK2vk3enh15AudioBufferView3pcmEv@@Base
000000000012c07c T _ZNK2vk3enh15AudioBufferView4sizeEv@@Base
000000000012c264 T _ZNK2vk3enh15AudioBufferView5startEv@@Base
000000000012c110 T _ZNK2vk3enh15AudioBufferView6bufferEv@@Base
000000000012c0e0 T _ZNK2vk3enh15AudioBufferView6floatsEv@@Base
000000000012c118 T _ZNK2vk3enh15AudioBufferView9newBufferEv@@Base
0000000000182de4 T _ZNK2vk3enh18WordpieceTokenizer10detokenizeERKNSt6__ndk16vectorImNS2_9allocatorImEEEEb@@Base
0000000000182ca4 T _ZNK2vk3enh18WordpieceTokenizer10tokens2IdsERKNSt6__ndk16vectorINS0_5TokenENS2_9allocatorIS4_EEEE@@Base
0000000000182168 T _ZNK2vk3enh18WordpieceTokenizer8tokenizeERKNSt6__ndk112basic_stringIcNS2_11char_traitsIcEENS2_9allocatorIcEEEEb@@Base
00000000001c2738 T _ZNK2vk3enh19TfLiteTensorWrapper4dataEv@@Base
0000000000176970 W _ZNK2vk3enh23thread_id_hex_formatter5cloneEv@@Base
000000000012c274 W _ZNK2vk3enh24AudioBufferFileInputType8toStringEv@@Base
000000000014fc00 T _ZNK2vk3enh3dll3Dll6isOpenEv@@Base
000000000014fdb4 T _ZNK2vk3enh3dll9DllHandle3getEv@@Base
000000000011e0a4 T _ZNK2vk3enh6Config11getArrayIntERKNSt6__ndk112basic_stringIcNS2_11char_traitsIcEENS2_9allocatorIcEEEE@@Base
000000000011e0b0 T _ZNK2vk3enh6Config11getArrayIntERKNSt6__ndk112basic_stringIcNS2_11char_traitsIcEENS2_9allocatorIcEEEENS2_6vectorIlNS6_IlEEEE@@Base
000000000011ce94 T _ZNK2vk3enh6Config11getFieldIntERKNSt6__ndk112basic_stringIcNS2_11char_traitsIcEENS2_9allocatorIcEEEE@@Base
000000000011ce18 T _ZNK2vk3enh6Config11getFieldIntERKNSt6__ndk112basic_stringIcNS2_11char_traitsIcEENS2_9allocatorIcEEEEl@@Base
000000000011cbac T _ZNK2vk3enh6Config11getFieldStrERKNSt6__ndk112basic_stringIcNS2_11char_traitsIcEENS2_9allocatorIcEEEE@@Base
000000000011cca8 T _ZNK2vk3enh6Config11getFieldStrERKNSt6__ndk112basic_stringIcNS2_11char_traitsIcEENS2_9allocatorIcEEEES8_@@Base
000000000011e84c W _ZNK2vk3enh6Config12convertArrayIfd12ucl_object_sEENSt6__ndk16vectorIT_NS4_9allocatorIS6_EEEERKNS4_12basic_stringIcNS4_11char_traitsIcEENS7_IcEEEEPFbPKT1_PT0_E@@Base
000000000011ef44 W _ZNK2vk3enh6Config12convertArrayIll12ucl_object_sEENSt6__ndk16vectorIT_NS4_9allocatorIS6_EEEERKNS4_12basic_stringIcNS4_11char_traitsIcEENS7_IcEEEEPFbPKT1_PT0_E@@Base
000000000011eb54 W _ZNK2vk3enh6Config12convertArrayINSt6__ndk112basic_stringIcNS3_11char_traitsIcEENS3_9allocatorIcEEEEPKc12ucl_object_sEENS3_6vectorIT_NS7_ISE_EEEERKS9_PFbPKT1_PT0_E@@Base
000000000011cd9c T _ZNK2vk3enh6Config12getFieldBoolERKNSt6__ndk112basic_stringIcNS2_11char_traitsIcEENS2_9allocatorIcEEEE@@Base
000000000011cd14 T _ZNK2vk3enh6Config12getFieldBoolERKNSt6__ndk112basic_stringIcNS2_11char_traitsIcEENS2_9allocatorIcEEEEb@@Base
000000000011d3ec T _ZNK2vk3enh6Config12getFieldPathERKNSt6__ndk112basic_stringIcNS2_11char_traitsIcEENS2_9allocatorIcEEEE@@Base
000000000011d5d8 T _ZNK2vk3enh6Config12getFieldPathERKNSt6__ndk112basic_stringIcNS2_11char_traitsIcEENS2_9allocatorIcEEEES8_@@Base
000000000011e1a0 T _ZNK2vk3enh6Config12getFieldTypeERKNSt6__ndk112basic_stringIcNS2_11char_traitsIcEENS2_9allocatorIcEEEE@@Base
000000000011d71c T _ZNK2vk3enh6Config12getSubConfigERKNSt6__ndk112basic_stringIcNS2_11char_traitsIcEENS2_9allocatorIcEEEE@@Base
000000000011d458 T _ZNK2vk3enh6Config12stringAsPathERKNSt6__ndk112basic_stringIcNS2_11char_traitsIcEENS2_9allocatorIcEEEE@@Base
000000000011d3d0 T _ZNK2vk3enh6Config13getArrayFloatERKNSt6__ndk112basic_stringIcNS2_11char_traitsIcEENS2_9allocatorIcEEEE@@Base
000000000011d3dc T _ZNK2vk3enh6Config13getArrayFloatERKNSt6__ndk112basic_stringIcNS2_11char_traitsIcEENS2_9allocatorIcEEEENS2_6vectorIfNS6_IfEEEE@@Base
000000000052c158 W _ZNK2vk3enh6Config14DeserializableINS0_13gtcrntfParamsEE8toStringEv@@Base
000000000053a664 W _ZNK2vk3enh6Config14DeserializableINS0_15Wav2LipV1ParamsEE8toStringEv@@Base
000000000053bd1c W _ZNK2vk3enh6Config14DeserializableINS0_15Wav2LipV3ParamsEE8toStringEv@@Base
000000000053cf10 W _ZNK2vk3enh6Config14DeserializableINS0_15Wav2LipV4ParamsEE8toStringEv@@Base
00000000005447a8 W _ZNK2vk3enh6Config14DeserializableINS0_17BCResNetKWSParamsEE8toStringEv@@Base
00000000001c3acc W _ZNK2vk3enh6Config14DeserializableINS0_17TfLiteModelParamsEE8toStringEv@@Base
000000000052e080 W _ZNK2vk3enh6Config14DeserializableINS0_18IntDecimatorParamsEE8toStringEv@@Base
0000000000548078 W _ZNK2vk3enh6Config14DeserializableINS0_30BCResNetExternalStateKWSParamsEE8toStringEv@@Base
0000000000528c88 W _ZNK2vk3enh6Config14DeserializableINS0_8DfParamsEE8toStringEv@@Base
000000000011dc84 T _ZNK2vk3enh6Config14getArrayStringERKNSt6__ndk112basic_stringIcNS2_11char_traitsIcEENS2_9allocatorIcEEEE@@Base
000000000011dc90 T _ZNK2vk3enh6Config14getArrayStringERKNSt6__ndk112basic_stringIcNS2_11char_traitsIcEENS2_9allocatorIcEEEENS2_6vectorIS8_NS6_IS8_EEEE@@Base
000000000011cf0c T _ZNK2vk3enh6Config14getFieldDoubleERKNSt6__ndk112basic_stringIcNS2_11char_traitsIcEENS2_9allocatorIcEEEE@@Base
000000000011cf8c T _ZNK2vk3enh6Config14getFieldDoubleERKNSt6__ndk112basic_stringIcNS2_11char_traitsIcEENS2_9allocatorIcEEEEd@@Base
000000000011d8f8 T _ZNK2vk3enh6Config17getSubConfigArrayERKNSt6__ndk112basic_stringIcNS2_11char_traitsIcEENS2_9allocatorIcEEEE@@Base
000000000011e988 W _ZNK2vk3enh6Config23convertArrayWithDefaultIfd12ucl_object_sEENSt6__ndk16vectorIT_NS4_9allocatorIS6_EEEERKNS4_12basic_stringIcNS4_11char_traitsIcEENS7_IcEEEEPFbPKT1_PT0_ERS9_@@Base
000000000011f080 W _ZNK2vk3enh6Config23convertArrayWithDefaultIll12ucl_object_sEENSt6__ndk16vectorIT_NS4_9allocatorIS6_EEEERKNS4_12basic_stringIcNS4_11char_traitsIcEENS7_IcEEEEPFbPKT1_PT0_ERS9_@@Base
000000000011ed74 W _ZNK2vk3enh6Config23convertArrayWithDefaultINSt6__ndk112basic_stringIcNS3_11char_traitsIcEENS3_9allocatorIcEEEEPKc12ucl_object_sEENS3_6vectorIT_NS7_ISE_EEEERKS9_PFbPKT1_PT0_ERSG_@@Base
0000000000528b9c W _ZNK2vk3enh6Config3getINSt6__ndk16vectorIfNS3_9allocatorIfEEEEEET_RKNS3_12basic_stringIcNS3_11char_traitsIcEENS5_IcEEEE@@Base
0000000000528a64 W _ZNK2vk3enh6Config3getINSt6__ndk16vectorIiNS3_9allocatorIiEEEEEET_RKNS3_12basic_stringIcNS3_11char_traitsIcEENS5_IcEEEE@@Base
00000000001c374c W _ZNK2vk3enh6Config3getINSt6__ndk16vectorIiNS3_9allocatorIiEEEEEET_RKNS3_12basic_stringIcNS3_11char_traitsIcEENS5_IcEEEES8_@@Base
000000000011c8a8 T _ZNK2vk3enh6Config4dumpENS0_5kEmitE@@Base
000000000011db28 T _ZNK2vk3enh6Config7getKeysEv@@Base
000000000011e15c T _ZNK2vk3enh6Config8hasFieldERKNSt6__ndk112basic_stringIcNS2_11char_traitsIcEENS2_9allocatorIcEEEE@@Base
00000000001c5168 T _ZNK2vk3enh6TfLite6getApiEv@@Base
000000000018af24 W _ZNK2vk3enh8AECQueueIfE7hasNextEv@@Base
000000000018af0c W _ZNK2vk3enh8AECQueueIfE7lpbSizeEv@@Base
000000000018af18 W _ZNK2vk3enh8AECQueueIfE7micSizeEv@@Base
000000000018a710 W _ZNK2vk3enh8AECQueueIsE7hasNextEv@@Base
000000000018a6f8 W _ZNK2vk3enh8AECQueueIsE7lpbSizeEv@@Base
000000000018a704 W _ZNK2vk3enh8AECQueueIsE7micSizeEv@@Base
000000000013584c T _ZNK2vk3enh8CPUImage2toENS0_6DeviceE@@Base
0000000000135824 T _ZNK2vk3enh8CPUImage4colsEv@@Base
000000000013583c T _ZNK2vk3enh8CPUImage4dataEv@@Base
000000000013581c T _ZNK2vk3enh8CPUImage4rowsEv@@Base
0000000000135944 T _ZNK2vk3enh8CPUImage4saveEPKc@@Base
0000000000135788 T _ZNK2vk3enh8CPUImage5cloneEv@@Base
0000000000135844 T _ZNK2vk3enh8CPUImage6deviceEv@@Base
0000000000135834 T _ZNK2vk3enh8CPUImage6formatEv@@Base
000000000013582c T _ZNK2vk3enh8CPUImage8channelsEv@@Base
000000000014ff94 T _ZNK2vk3enh9ScopedLog5levelEv@@Base
000000000014ffa0 T _ZNK2vk3enh9ScopedLog9verbosityEv@@Base
00000000001c0a6c T _ZNK2vk3enh9TensorMap10ComparatorclERKNSt6__ndk110shared_ptrINS0_11TensorIndexEEES8_@@Base
00000000001c0b94 T _ZNK2vk3enh9TensorMap4findERKNSt6__ndk110shared_ptrINS0_11TensorIndexEEE@@Base
00000000001c0be0 T _ZNK2vk3enh9TensorMap4HashclERKNSt6__ndk110shared_ptrINS0_11TensorIndexEEE@@Base
000000000012f360 T _ZNK6Cutter13cutIntoChunksERKN2vk3enh11AudioBufferERKNSt6__ndk16vectorINS6_IfNS5_9allocatorIfEEEENS7_IS9_EEEE@@Base
000000000012f418 T _ZNK6Cutter15cutByTimestampsERKN2vk3enh11AudioBufferERKNSt6__ndk16vectorINS1_9TimestampENS5_9allocatorIS7_EEEE@@Base
000000000012f6bc T _ZNK6Cutter22cutIntoNonSpeechChunksERKN2vk3enh11AudioBufferERKNSt6__ndk16vectorINS1_9TimestampENS5_9allocatorIS7_EEEE@@Base
000000000012f2ec T _ZNK6Cutter3cutERKN2vk3enh11AudioBufferERKNSt6__ndk16vectorINS6_IfNS5_9allocatorIfEEEENS7_IS9_EEEE@@Base
000000000012eecc T _ZNK6Cutter6slicerERKN2vk3enh11AudioBufferERKNSt6__ndk16vectorIiNS5_9allocatorIiEEEE@@Base
00000000001c16ec W _ZNKSt6__ndk112__hash_tableINS_17__hash_value_typeINS_10shared_ptrIN2vk3enh11TensorIndexEEENS2_INS4_6TensorEEEEENS_22__unordered_map_hasherIS6_S9_NS4_9TensorMap4HashENSB_10ComparatorELb1EEENS_21__unordered_map_equalIS6_S9_SD_SC_Lb1EEENS_9allocatorIS9_EEE4findIS6_EENS_21__hash_const_iteratorIPNS_11__hash_nodeIS9_PvEEEERKT_@@Base
000000000017d158 W _ZNKSt6__ndk112__hash_tableINS_17__hash_value_typeINS_12basic_stringIcNS_11char_traitsIcEENS_9allocatorIcEEEEN2vk3enh9ScopedLog5Level4EnumEEENS_22__unordered_map_hasherIS7_SD_NS_4hashIS7_EENS_8equal_toIS7_EELb1EEENS_21__unordered_map_equalIS7_SD_SI_SG_Lb1EEENS5_ISD_EEE4findIS7_EENS_21__hash_const_iteratorIPNS_11__hash_nodeISD_PvEEEERKT_@@Base
000000000017dd18 W _ZNKSt6__ndk112__hash_tableINS_17__hash_value_typeINS_12basic_stringIcNS_11char_traitsIcEENS_9allocatorIcEEEEN2vk3enh9ScopedLog9Verbosity4EnumEEENS_22__unordered_map_hasherIS7_SD_NS_4hashIS7_EENS_8equal_toIS7_EELb1EEENS_21__unordered_map_equalIS7_SD_SI_SG_Lb1EEENS5_ISD_EEE4findIS7_EENS_21__hash_const_iteratorIPNS_11__hash_nodeISD_PvEEEERKT_@@Base
0000000000128528 W _ZNKSt6__ndk112__hash_tableINS_17__hash_value_typeINS_12basic_stringIcNS_11char_traitsIcEENS_9allocatorIcEEEENS_10unique_ptrIN2vk3enh13CtxObjectBaseENS_14default_deleteISB_EEEEEENS_22__unordered_map_hasherIS7_SF_NS_4hashIS7_EENS_8equal_toIS7_EELb1EEENS_21__unordered_map_equalIS7_SF_SK_SI_Lb1EEENS5_ISF_EEE4findIS7_EENS_21__hash_const_iteratorIPNS_11__hash_nodeISF_PvEEEERKT_@@Base
000000000017fc9c W _ZNSt6__ndk112__hash_tableINS_17__hash_value_typeImNS_10shared_ptrIN2vk3enh9ScopedLogEEEEENS_22__unordered_map_hasherImS7_NS_4hashImEENS_8equal_toImEELb1EEENS_21__unordered_map_equalImS7_SC_SA_Lb1EEENS_9allocatorIS7_EEE11__do_rehashILb1EEEvm@@Base
000000000017f8ec W _ZNSt6__ndk112__hash_tableINS_17__hash_value_typeImNS_10shared_ptrIN2vk3enh9ScopedLogEEEEENS_22__unordered_map_hasherImS7_NS_4hashImEENS_8equal_toImEELb1EEENS_21__unordered_map_equalImS7_SC_SA_Lb1EEENS_9allocatorIS7_EEE25__emplace_unique_key_argsImJRKNS_21piecewise_construct_tENS_5tupleIJRKmEEENSN_IJEEEEEENS_4pairINS_15__hash_iteratorIPNS_11__hash_nodeIS7_PvEEEEbEERKT_DpOT0_@@Base
000000000017e7f8 W _ZNSt6__ndk112__hash_tableINS_17__hash_value_typeImNS_8functionIFNS_10shared_ptrIN2vk3enh9ScopedLogEEEvEEEEENS_22__unordered_map_hasherImSA_NS_4hashImEENS_8equal_toImEELb1EEENS_21__unordered_map_equalImSA_SF_SD_Lb1EEENS_9allocatorISA_EEE11__do_rehashILb1EEEvm@@Base
000000000017e458 W _ZNSt6__ndk112__hash_tableINS_17__hash_value_typeImNS_8functionIFNS_10shared_ptrIN2vk3enh9ScopedLogEEEvEEEEENS_22__unordered_map_hasherImSA_NS_4hashImEENS_8equal_toImEELb1EEENS_21__unordered_map_equalImSA_SF_SD_Lb1EEENS_9allocatorISA_EEE25__emplace_unique_key_argsImJRKNS_21piecewise_construct_tENS_5tupleIJRKmEEENSQ_IJEEEEEENS_4pairINS_15__hash_iteratorIPNS_11__hash_nodeISA_PvEEEEbEERKT_DpOT0_@@Base
000000000012d6fc W _ZNSt6__ndk112__hash_tableINS_17__hash_value_typeIN2vk3enh24AudioBufferFileInputType4EnumENS_12basic_stringIcNS_11char_traitsIcEENS_9allocatorIcEEEEEENS_22__unordered_map_hasherIS5_SC_NS_4hashIS5_EENS_8equal_toIS5_EELb1EEENS_21__unordered_map_equalIS5_SC_SH_SF_Lb1EEENS9_ISC_EEE11__do_rehashILb1EEEvm@@Base
000000000012d390 W _ZNSt6__ndk112__hash_tableINS_17__hash_value_typeIN2vk3enh24AudioBufferFileInputType4EnumENS_12basic_stringIcNS_11char_traitsIcEENS_9allocatorIcEEEEEENS_22__unordered_map_hasherIS5_SC_NS_4hashIS5_EENS_8equal_toIS5_EELb1EEENS_21__unordered_map_equalIS5_SC_SH_SF_Lb1EEENS9_ISC_EEE25__emplace_unique_key_argsIS5_JRKNS_21piecewise_construct_tENS_5tupleIJRKS5_EEENSR_IJEEEEEENS_4pairINS_15__hash_iteratorIPNS_11__hash_nodeISC_PvEEEEbEERKT_DpOT0_@@Base
00000000001c102c W _ZNSt6__ndk112__hash_tableINS_17__hash_value_typeINS_10shared_ptrIN2vk3enh11TensorIndexEEENS2_INS4_6TensorEEEEENS_22__unordered_map_hasherIS6_S9_NS4_9TensorMap4HashENSB_10ComparatorELb1EEENS_21__unordered_map_equalIS6_S9_SD_SC_Lb1EEENS_9allocatorIS9_EEE11__do_rehashILb1EEEvm@@Base
00000000001c1378 W _ZNSt6__ndk112__hash_tableINS_17__hash_value_typeINS_10shared_ptrIN2vk3enh11TensorIndexEEENS2_INS4_6TensorEEEEENS_22__unordered_map_hasherIS6_S9_NS4_9TensorMap4HashENSB_10ComparatorELb1EEENS_21__unordered_map_equalIS6_S9_SD_SC_Lb1EEENS_9allocatorIS9_EEE25__emplace_unique_key_argsIS6_JRKNS_21piecewise_construct_tENS_5tupleIJRKS6_EEENSO_IJEEEEEENS_4pairINS_15__hash_iteratorIPNS_11__hash_nodeIS9_PvEEEEbEERKT_DpOT0_@@Base
00000000001c0bf0 W _ZNSt6__ndk112__hash_tableINS_17__hash_value_typeINS_10shared_ptrIN2vk3enh11TensorIndexEEENS2_INS4_6TensorEEEEENS_22__unordered_map_hasherIS6_S9_NS4_9TensorMap4HashENSB_10ComparatorELb1EEENS_21__unordered_map_equalIS6_S9_SD_SC_Lb1EEENS_9allocatorIS9_EEE25__emplace_unique_key_argsIS6_JRKS6_RKS8_EEENS_4pairINS_15__hash_iteratorIPNS_11__hash_nodeIS9_PvEEEEbEERKT_DpOT0_@@Base
000000000012d1b8 W _ZNSt6__ndk112__hash_tableINS_17__hash_value_typeINS_12basic_stringIcNS_11char_traitsIcEENS_9allocatorIcEEEEN2vk3enh24AudioBufferFileInputType4EnumEEENS_22__unordered_map_hasherIS7_SC_NS_4hashIS7_EENS_8equal_toIS7_EELb1EEENS_21__unordered_map_equalIS7_SC_SH_SF_Lb1EEENS5_ISC_EEE11__do_rehashILb1EEEvm@@Base
000000000012ccc8 W _ZNSt6__ndk112__hash_tableINS_17__hash_value_typeINS_12basic_stringIcNS_11char_traitsIcEENS_9allocatorIcEEEEN2vk3enh24AudioBufferFileInputType4EnumEEENS_22__unordered_map_hasherIS7_SC_NS_4hashIS7_EENS_8equal_toIS7_EELb1EEENS_21__unordered_map_equalIS7_SC_SH_SF_Lb1EEENS5_ISC_EEE25__emplace_unique_key_argsIS7_JRKNS_21piecewise_construct_tENS_5tupleIJRKS7_EEENSR_IJEEEEEENS_4pairINS_15__hash_iteratorIPNS_11__hash_nodeISC_PvEEEEbEERKT_DpOT0_@@Base
000000000017cf80 W _ZNSt6__ndk112__hash_tableINS_17__hash_value_typeINS_12basic_stringIcNS_11char_traitsIcEENS_9allocatorIcEEEEN2vk3enh9ScopedLog5Level4EnumEEENS_22__unordered_map_hasherIS7_SD_NS_4hashIS7_EENS_8equal_toIS7_EELb1EEENS_21__unordered_map_equalIS7_SD_SI_SG_Lb1EEENS5_ISD_EEE11__do_rehashILb1EEEvm@@Base
000000000017ca90 W _ZNSt6__ndk112__hash_tableINS_17__hash_value_typeINS_12basic_stringIcNS_11char_traitsIcEENS_9allocatorIcEEEEN2vk3enh9ScopedLog5Level4EnumEEENS_22__unordered_map_hasherIS7_SD_NS_4hashIS7_EENS_8equal_toIS7_EELb1EEENS_21__unordered_map_equalIS7_SD_SI_SG_Lb1EEENS5_ISD_EEE25__emplace_unique_key_argsIS7_JRKNS_21piecewise_construct_tENS_5tupleIJRKS7_EEENSS_IJEEEEEENS_4pairINS_15__hash_iteratorIPNS_11__hash_nodeISD_PvEEEEbEERKT_DpOT0_@@Base
000000000017db40 W _ZNSt6__ndk112__hash_tableINS_17__hash_value_typeINS_12basic_stringIcNS_11char_traitsIcEENS_9allocatorIcEEEEN2vk3enh9ScopedLog9Verbosity4EnumEEENS_22__unordered_map_hasherIS7_SD_NS_4hashIS7_EENS_8equal_toIS7_EELb1EEENS_21__unordered_map_equalIS7_SD_SI_SG_Lb1EEENS5_ISD_EEE11__do_rehashILb1EEEvm@@Base
000000000017d650 W _ZNSt6__ndk112__hash_tableINS_17__hash_value_typeINS_12basic_stringIcNS_11char_traitsIcEENS_9allocatorIcEEEEN2vk3enh9ScopedLog9Verbosity4EnumEEENS_22__unordered_map_hasherIS7_SD_NS_4hashIS7_EENS_8equal_toIS7_EELb1EEENS_21__unordered_map_equalIS7_SD_SI_SG_Lb1EEENS5_ISD_EEE25__emplace_unique_key_argsIS7_JRKNS_21piecewise_construct_tENS_5tupleIJRKS7_EEENSS_IJEEEEEENS_4pairINS_15__hash_iteratorIPNS_11__hash_nodeISD_PvEEEEbEERKT_DpOT0_@@Base
0000000000128240 W _ZNSt6__ndk112__hash_tableINS_17__hash_value_typeINS_12basic_stringIcNS_11char_traitsIcEENS_9allocatorIcEEEENS_10unique_ptrIN2vk3enh13CtxObjectBaseENS_14default_deleteISB_EEEEEENS_22__unordered_map_hasherIS7_SF_NS_4hashIS7_EENS_8equal_toIS7_EELb1EEENS_21__unordered_map_equalIS7_SF_SK_SI_Lb1EEENS5_ISF_EEE11__do_rehashILb1EEEvm@@Base
0000000000127d34 W _ZNSt6__ndk112__hash_tableINS_17__hash_value_typeINS_12basic_stringIcNS_11char_traitsIcEENS_9allocatorIcEEEENS_10unique_ptrIN2vk3enh13CtxObjectBaseENS_14default_deleteISB_EEEEEENS_22__unordered_map_hasherIS7_SF_NS_4hashIS7_EENS_8equal_toIS7_EELb1EEENS_21__unordered_map_equalIS7_SF_SK_SI_Lb1EEENS5_ISF_EEE25__emplace_unique_key_argsIS7_JRKS7_NS8_INSA_13CtxObjectImplINS_6vectorINSU_IfNS5_IfEEEENS5_ISW_EEEEEENSC_ISZ_EEEEEEENS_4pairINS_15__hash_iteratorIPNS_11__hash_nodeISF_PvEEEEbEERKT_DpOT0_@@Base
00000000001276bc W _ZNSt6__ndk112__hash_tableINS_17__hash_value_typeINS_12basic_stringIcNS_11char_traitsIcEENS_9allocatorIcEEEENS_10unique_ptrIN2vk3enh13CtxObjectBaseENS_14default_deleteISB_EEEEEENS_22__unordered_map_hasherIS7_SF_NS_4hashIS7_EENS_8equal_toIS7_EELb1EEENS_21__unordered_map_equalIS7_SF_SK_SI_Lb1EEENS5_ISF_EEE4findIS7_EENS_15__hash_iteratorIPNS_11__hash_nodeISF_PvEEEERKT_@@Base
000000000019aa30 W _ZNSt6__ndk112__hash_tableINS_17__hash_value_typeINS_12basic_stringIcNS_11char_traitsIcEENS_9allocatorIcEEEENS_8functionIFNS_10shared_ptrIN2vk3enh10AudioMixerEEERKNSB_6ConfigEEEEEENS_22__unordered_map_hasherIS7_SJ_NS_4hashIS7_EENS_8equal_toIS7_EELb1EEENS_21__unordered_map_equalIS7_SJ_SO_SM_Lb1EEENS5_ISJ_EEE4findIS7_EENS_15__hash_iteratorIPNS_11__hash_nodeISJ_PvEEEERKT_@@Base
000000000019a130 W _ZNSt6__ndk112__hash_tableINS_17__hash_value_typeINS_12basic_stringIcNS_11char_traitsIcEENS_9allocatorIcEEEENS_8functionIFNS_10shared_ptrIN2vk3enh11AudioFilterEEERKNSB_6ConfigEEEEEENS_22__unordered_map_hasherIS7_SJ_NS_4hashIS7_EENS_8equal_toIS7_EELb1EEENS_21__unordered_map_equalIS7_SJ_SO_SM_Lb1EEENS5_ISJ_EEE4findIS7_EENS_15__hash_iteratorIPNS_11__hash_nodeISJ_PvEEEERKT_@@Base
0000000000187258 W _ZNSt6__ndk112__hash_tableINS_17__hash_value_typeINS_12basic_stringIcNS_11char_traitsIcEENS_9allocatorIcEEEENS_8functionIFNS_10shared_ptrIN2vk3enh13ForcedAlignerEEERKNSB_6ConfigEEEEEENS_22__unordered_map_hasherIS7_SJ_NS_4hashIS7_EENS_8equal_toIS7_EELb1EEENS_21__unordered_map_equalIS7_SJ_SO_SM_Lb1EEENS5_ISJ_EEE4findIS7_EENS_15__hash_iteratorIPNS_11__hash_nodeISJ_PvEEEERKT_@@Base
0000000000185758 W _ZNSt6__ndk112__hash_tableINS_17__hash_value_typeINS_12basic_stringIcNS_11char_traitsIcEENS_9allocatorIcEEEENS_8functionIFNS_10shared_ptrIN2vk3enh15AudioClassifierEEERKNSB_6ConfigEEEEEENS_22__unordered_map_hasherIS7_SJ_NS_4hashIS7_EENS_8equal_toIS7_EELb1EEENS_21__unordered_map_equalIS7_SJ_SO_SM_Lb1EEENS5_ISJ_EEE4findIS7_EENS_15__hash_iteratorIPNS_11__hash_nodeISJ_PvEEEERKT_@@Base
000000000018c178 W _ZNSt6__ndk112__hash_tableINS_17__hash_value_typeINS_12basic_stringIcNS_11char_traitsIcEENS_9allocatorIcEEEENS_8functionIFNS_10shared_ptrIN2vk3enh15SuperResolutionEEERKNSB_6ConfigEEEEEENS_22__unordered_map_hasherIS7_SJ_NS_4hashIS7_EENS_8equal_toIS7_EELb1EEENS_21__unordered_map_equalIS7_SJ_SO_SM_Lb1EEENS5_ISJ_EEE4findIS7_EENS_15__hash_iteratorIPNS_11__hash_nodeISJ_PvEEEERKT_@@Base
000000000019b330 W _ZNSt6__ndk112__hash_tableINS_17__hash_value_typeINS_12basic_stringIcNS_11char_traitsIcEENS_9allocatorIcEEEENS_8functionIFNS_10shared_ptrIN2vk3enh16AudioDelayBufferEEERKNSB_6ConfigEEEEEENS_22__unordered_map_hasherIS7_SJ_NS_4hashIS7_EENS_8equal_toIS7_EELb1EEENS_21__unordered_map_equalIS7_SJ_SO_SM_Lb1EEENS5_ISJ_EEE4findIS7_EENS_15__hash_iteratorIPNS_11__hash_nodeISJ_PvEEEERKT_@@Base
0000000000188d58 W _ZNSt6__ndk112__hash_tableINS_17__hash_value_typeINS_12basic_stringIcNS_11char_traitsIcEENS_9allocatorIcEEEENS_8functionIFNS_10shared_ptrIN2vk3enh17DiarizationEngineEEERKNSB_6ConfigEEEEEENS_22__unordered_map_hasherIS7_SJ_NS_4hashIS7_EENS_8equal_toIS7_EELb1EEENS_21__unordered_map_equalIS7_SJ_SO_SM_Lb1EEENS5_ISJ_EEE4findIS7_EENS_15__hash_iteratorIPNS_11__hash_nodeISJ_PvEEEERKT_@@Base
0000000000524c24 W _ZNSt6__ndk112__hash_tableINS_17__hash_value_typeINS_12basic_stringIcNS_11char_traitsIcEENS_9allocatorIcEEEENS_8functionIFNS_10shared_ptrIN2vk3enh20EnhancementAlgorithmEEERKNSB_6ConfigEEEEEENS_22__unordered_map_hasherIS7_SJ_NS_4hashIS7_EENS_8equal_toIS7_EELb1EEENS_21__unordered_map_equalIS7_SJ_SO_SM_Lb1EEENS5_ISJ_EEE11__do_rehashILb1EEEvm@@Base
0000000000524708 W _ZNSt6__ndk112__hash_tableINS_17__hash_value_typeINS_12basic_stringIcNS_11char_traitsIcEENS_9allocatorIcEEEENS_8functionIFNS_10shared_ptrIN2vk3enh20EnhancementAlgorithmEEERKNSB_6ConfigEEEEEENS_22__unordered_map_hasherIS7_SJ_NS_4hashIS7_EENS_8equal_toIS7_EELb1EEENS_21__unordered_map_equalIS7_SJ_SO_SM_Lb1EEENS5_ISJ_EEE25__emplace_unique_key_argsIS7_JRKNS_21piecewise_construct_tENS_5tupleIJRKS7_EEENSY_IJEEEEEENS_4pairINS_15__hash_iteratorIPNS_11__hash_nodeISJ_PvEEEEbEERKT_DpOT0_@@Base
0000000000186058 W _ZNSt6__ndk112__hash_tableINS_17__hash_value_typeINS_12basic_stringIcNS_11char_traitsIcEENS_9allocatorIcEEEENS_8functionIFNS_10shared_ptrIN2vk3enh20EnhancementAlgorithmEEERKNSB_6ConfigEEEEEENS_22__unordered_map_hasherIS7_SJ_NS_4hashIS7_EENS_8equal_toIS7_EELb1EEENS_21__unordered_map_equalIS7_SJ_SO_SM_Lb1EEENS5_ISJ_EEE4findIS7_EENS_15__hash_iteratorIPNS_11__hash_nodeISJ_PvEEEERKT_@@Base
0000000000189b64 W _ZNSt6__ndk112__hash_tableINS_17__hash_value_typeINS_12basic_stringIcNS_11char_traitsIcEENS_9allocatorIcEEEENS_8functionIFNS_10shared_ptrIN2vk3enh24SpeakerRecognitionEngineEEERKNSB_6ConfigEEEEEENS_22__unordered_map_hasherIS7_SJ_NS_4hashIS7_EENS_8equal_toIS7_EELb1EEENS_21__unordered_map_equalIS7_SJ_SO_SM_Lb1EEENS5_ISJ_EEE4findIS7_EENS_15__hash_iteratorIPNS_11__hash_nodeISJ_PvEEEERKT_@@Base
0000000000189eb0 W _ZNSt6__ndk112__hash_tableINS_17__hash_value_typeINS_12basic_stringIcNS_11char_traitsIcEENS_9allocatorIcEEEENS_8functionIFNS_10shared_ptrIN2vk3enh26SpeakerRecognitionVerifierEEERKNSB_6ConfigEEEEEENS_22__unordered_map_hasherIS7_SJ_NS_4hashIS7_EENS_8equal_toIS7_EELb1EEENS_21__unordered_map_equalIS7_SJ_SO_SM_Lb1EEENS5_ISJ_EEE4findIS7_EENS_15__hash_iteratorIPNS_11__hash_nodeISJ_PvEEEERKT_@@Base
000000000018b878 W _ZNSt6__ndk112__hash_tableINS_17__hash_value_typeINS_12basic_stringIcNS_11char_traitsIcEENS_9allocatorIcEEEENS_8functionIFNS_10shared_ptrIN2vk3enh3AECEEERKNSB_6ConfigEEEEEENS_22__unordered_map_hasherIS7_SJ_NS_4hashIS7_EENS_8equal_toIS7_EELb1EEENS_21__unordered_map_equalIS7_SJ_SO_SM_Lb1EEENS5_ISJ_EEE4findIS7_EENS_15__hash_iteratorIPNS_11__hash_nodeISJ_PvEEEERKT_@@Base
0000000000186958 W _ZNSt6__ndk112__hash_tableINS_17__hash_value_typeINS_12basic_stringIcNS_11char_traitsIcEENS_9allocatorIcEEEENS_8functionIFNS_10shared_ptrIN2vk3enh3AGCEEERKNSB_6ConfigEEEEEENS_22__unordered_map_hasherIS7_SJ_NS_4hashIS7_EENS_8equal_toIS7_EELb1EEENS_21__unordered_map_equalIS7_SJ_SO_SM_Lb1EEENS5_ISJ_EEE4findIS7_EENS_15__hash_iteratorIPNS_11__hash_nodeISJ_PvEEEERKT_@@Base
000000000018d378 W _ZNSt6__ndk112__hash_tableINS_17__hash_value_typeINS_12basic_stringIcNS_11char_traitsIcEENS_9allocatorIcEEEENS_8functionIFNS_10shared_ptrIN2vk3enh3ASREEERKNSB_6ConfigEEEEEENS_22__unordered_map_hasherIS7_SJ_NS_4hashIS7_EENS_8equal_toIS7_EELb1EEENS_21__unordered_map_equalIS7_SJ_SO_SM_Lb1EEENS5_ISJ_EEE4findIS7_EENS_15__hash_iteratorIPNS_11__hash_nodeISJ_PvEEEERKT_@@Base
0000000000544fe4 W _ZNSt6__ndk112__hash_tableINS_17__hash_value_typeINS_12basic_stringIcNS_11char_traitsIcEENS_9allocatorIcEEEENS_8functionIFNS_10shared_ptrIN2vk3enh3KWSEEERKNSB_6ConfigEEEEEENS_22__unordered_map_hasherIS7_SJ_NS_4hashIS7_EENS_8equal_toIS7_EELb1EEENS_21__unordered_map_equalIS7_SJ_SO_SM_Lb1EEENS5_ISJ_EEE11__do_rehashILb1EEEvm@@Base
0000000000544ac8 W _ZNSt6__ndk112__hash_tableINS_17__hash_value_typeINS_12basic_stringIcNS_11char_traitsIcEENS_9allocatorIcEEEENS_8functionIFNS_10shared_ptrIN2vk3enh3KWSEEERKNSB_6ConfigEEEEEENS_22__unordered_map_hasherIS7_SJ_NS_4hashIS7_EENS_8equal_toIS7_EELb1EEENS_21__unordered_map_equalIS7_SJ_SO_SM_Lb1EEENS5_ISJ_EEE25__emplace_unique_key_argsIS7_JRKNS_21piecewise_construct_tENS_5tupleIJRKS7_EEENSY_IJEEEEEENS_4pairINS_15__hash_iteratorIPNS_11__hash_nodeISJ_PvEEEEbEERKT_DpOT0_@@Base
000000000019d674 W _ZNSt6__ndk112__hash_tableINS_17__hash_value_typeINS_12basic_stringIcNS_11char_traitsIcEENS_9allocatorIcEEEENS_8functionIFNS_10shared_ptrIN2vk3enh3KWSEEERKNSB_6ConfigEEEEEENS_22__unordered_map_hasherIS7_SJ_NS_4hashIS7_EENS_8equal_toIS7_EELb1EEENS_21__unordered_map_equalIS7_SJ_SO_SM_Lb1EEENS5_ISJ_EEE4findIS7_EENS_15__hash_iteratorIPNS_11__hash_nodeISJ_PvEEEERKT_@@Base
000000000018ca78 W _ZNSt6__ndk112__hash_tableINS_17__hash_value_typeINS_12basic_stringIcNS_11char_traitsIcEENS_9allocatorIcEEEENS_8functionIFNS_10shared_ptrIN2vk3enh3VfiEEERKNSB_6ConfigEEEEEENS_22__unordered_map_hasherIS7_SJ_NS_4hashIS7_EENS_8equal_toIS7_EELb1EEENS_21__unordered_map_equalIS7_SJ_SO_SM_Lb1EEENS5_ISJ_EEE4findIS7_EENS_15__hash_iteratorIPNS_11__hash_nodeISJ_PvEEEERKT_@@Base
00000000001c43e8 W _ZNSt6__ndk112__hash_tableINS_17__hash_value_typeINS_12basic_stringIcNS_11char_traitsIcEENS_9allocatorIcEEEENS_8functionIFNS_10shared_ptrIN2vk3enh4NnetEEERKNSB_6ConfigERKNS_6vectorIhNS5_IhEEEEEEEEENS_22__unordered_map_hasherIS7_SO_NS_4hashIS7_EENS_8equal_toIS7_EELb1EEENS_21__unordered_map_equalIS7_SO_ST_SR_Lb1EEENS5_ISO_EEE11__do_rehashILb1EEEvm@@Base
00000000001c3ecc W _ZNSt6__ndk112__hash_tableINS_17__hash_value_typeINS_12basic_stringIcNS_11char_traitsIcEENS_9allocatorIcEEEENS_8functionIFNS_10shared_ptrIN2vk3enh4NnetEEERKNSB_6ConfigERKNS_6vectorIhNS5_IhEEEEEEEEENS_22__unordered_map_hasherIS7_SO_NS_4hashIS7_EENS_8equal_toIS7_EELb1EEENS_21__unordered_map_equalIS7_SO_ST_SR_Lb1EEENS5_ISO_EEE25__emplace_unique_key_argsIS7_JRKNS_21piecewise_construct_tENS_5tupleIJRKS7_EEENS13_IJEEEEEENS_4pairINS_15__hash_iteratorIPNS_11__hash_nodeISO_PvEEEEbEERKT_DpOT0_@@Base
00000000001c02e8 W _ZNSt6__ndk112__hash_tableINS_17__hash_value_typeINS_12basic_stringIcNS_11char_traitsIcEENS_9allocatorIcEEEENS_8functionIFNS_10shared_ptrIN2vk3enh4NnetEEERKNSB_6ConfigERKNS_6vectorIhNS5_IhEEEEEEEEENS_22__unordered_map_hasherIS7_SO_NS_4hashIS7_EENS_8equal_toIS7_EELb1EEENS_21__unordered_map_equalIS7_SO_ST_SR_Lb1EEENS5_ISO_EEE4findIS7_EENS_15__hash_iteratorIPNS_11__hash_nodeISO_PvEEEERKT_@@Base
0000000000198f30 W _ZNSt6__ndk112__hash_tableINS_17__hash_value_typeINS_12basic_stringIcNS_11char_traitsIcEENS_9allocatorIcEEEENS_8functionIFNS_10shared_ptrIN2vk3enh5CodecEEERKNSB_6ConfigEEEEEENS_22__unordered_map_hasherIS7_SJ_NS_4hashIS7_EENS_8equal_toIS7_EELb1EEENS_21__unordered_map_equalIS7_SJ_SO_SM_Lb1EEENS5_ISJ_EEE4findIS7_EENS_15__hash_iteratorIPNS_11__hash_nodeISJ_PvEEEERKT_@@Base
0000000000197d30 W _ZNSt6__ndk112__hash_tableINS_17__hash_value_typeINS_12basic_stringIcNS_11char_traitsIcEENS_9allocatorIcEEEENS_8functionIFNS_10shared_ptrIN2vk3enh5PunctEEERKNSB_6ConfigEEEEEENS_22__unordered_map_hasherIS7_SJ_NS_4hashIS7_EENS_8equal_toIS7_EELb1EEENS_21__unordered_map_equalIS7_SJ_SO_SM_Lb1EEENS5_ISJ_EEE4findIS7_EENS_15__hash_iteratorIPNS_11__hash_nodeISJ_PvEEEERKT_@@Base
0000000000199830 W _ZNSt6__ndk112__hash_tableINS_17__hash_value_typeINS_12basic_stringIcNS_11char_traitsIcEENS_9allocatorIcEEEENS_8functionIFNS_10shared_ptrIN2vk3enh6EffectEEERKNSB_6ConfigEEEEEENS_22__unordered_map_hasherIS7_SJ_NS_4hashIS7_EENS_8equal_toIS7_EELb1EEENS_21__unordered_map_equalIS7_SJ_SO_SM_Lb1EEENS5_ISJ_EEE4findIS7_EENS_15__hash_iteratorIPNS_11__hash_nodeISJ_PvEEEERKT_@@Base
000000000053ddd4 W _ZNSt6__ndk112__hash_tableINS_17__hash_value_typeINS_12basic_stringIcNS_11char_traitsIcEENS_9allocatorIcEEEENS_8functionIFNS_10shared_ptrIN2vk3enh7AnimojiEEERKNSB_6ConfigEEEEEENS_22__unordered_map_hasherIS7_SJ_NS_4hashIS7_EENS_8equal_toIS7_EELb1EEENS_21__unordered_map_equalIS7_SJ_SO_SM_Lb1EEENS5_ISJ_EEE11__do_rehashILb1EEEvm@@Base
000000000053d8b8 W _ZNSt6__ndk112__hash_tableINS_17__hash_value_typeINS_12basic_stringIcNS_11char_traitsIcEENS_9allocatorIcEEEENS_8functionIFNS_10shared_ptrIN2vk3enh7AnimojiEEERKNSB_6ConfigEEEEEENS_22__unordered_map_hasherIS7_SJ_NS_4hashIS7_EENS_8equal_toIS7_EELb1EEENS_21__unordered_map_equalIS7_SJ_SO_SM_Lb1EEENS5_ISJ_EEE25__emplace_unique_key_argsIS7_JRKNS_21piecewise_construct_tENS_5tupleIJRKS7_EEENSY_IJEEEEEENS_4pairINS_15__hash_iteratorIPNS_11__hash_nodeISJ_PvEEEEbEERKT_DpOT0_@@Base
0000000000197430 W _ZNSt6__ndk112__hash_tableINS_17__hash_value_typeINS_12basic_stringIcNS_11char_traitsIcEENS_9allocatorIcEEEENS_8functionIFNS_10shared_ptrIN2vk3enh7AnimojiEEERKNSB_6ConfigEEEEEENS_22__unordered_map_hasherIS7_SJ_NS_4hashIS7_EENS_8equal_toIS7_EELb1EEENS_21__unordered_map_equalIS7_SJ_SO_SM_Lb1EEENS5_ISJ_EEE4findIS7_EENS_15__hash_iteratorIPNS_11__hash_nodeISJ_PvEEEERKT_@@Base
0000000000188458 W _ZNSt6__ndk112__hash_tableINS_17__hash_value_typeINS_12basic_stringIcNS_11char_traitsIcEENS_9allocatorIcEEEENS_8functionIFNS_10shared_ptrIN2vk3enh8PipelineEEERKNSB_6ConfigEEEEEENS_22__unordered_map_hasherIS7_SJ_NS_4hashIS7_EENS_8equal_toIS7_EELb1EEENS_21__unordered_map_equalIS7_SJ_SO_SM_Lb1EEENS5_ISJ_EEE4findIS7_EENS_15__hash_iteratorIPNS_11__hash_nodeISJ_PvEEEERKT_@@Base
0000000000198630 W _ZNSt6__ndk112__hash_tableINS_17__hash_value_typeINS_12basic_stringIcNS_11char_traitsIcEENS_9allocatorIcEEEENS_8functionIFNS_10shared_ptrIN2vk3enh9ProfanityEEERKNSB_6ConfigEEEEEENS_22__unordered_map_hasherIS7_SJ_NS_4hashIS7_EENS_8equal_toIS7_EELb1EEENS_21__unordered_map_equalIS7_SJ_SO_SM_Lb1EEENS5_ISJ_EEE4findIS7_EENS_15__hash_iteratorIPNS_11__hash_nodeISJ_PvEEEERKT_@@Base
000000000052e8bc W _ZNSt6__ndk112__hash_tableINS_17__hash_value_typeINS_12basic_stringIcNS_11char_traitsIcEENS_9allocatorIcEEEENS_8functionIFNS_10shared_ptrIN2vk3enh9ResamplerEEERKNSB_6ConfigEEEEEENS_22__unordered_map_hasherIS7_SJ_NS_4hashIS7_EENS_8equal_toIS7_EELb1EEENS_21__unordered_map_equalIS7_SJ_SO_SM_Lb1EEENS5_ISJ_EEE11__do_rehashILb1EEEvm@@Base
000000000052e3a0 W _ZNSt6__ndk112__hash_tableINS_17__hash_value_typeINS_12basic_stringIcNS_11char_traitsIcEENS_9allocatorIcEEEENS_8functionIFNS_10shared_ptrIN2vk3enh9ResamplerEEERKNSB_6ConfigEEEEEENS_22__unordered_map_hasherIS7_SJ_NS_4hashIS7_EENS_8equal_toIS7_EELb1EEENS_21__unordered_map_equalIS7_SJ_SO_SM_Lb1EEENS5_ISJ_EEE25__emplace_unique_key_argsIS7_JRKNS_21piecewise_construct_tENS_5tupleIJRKS7_EEENSY_IJEEEEEENS_4pairINS_15__hash_iteratorIPNS_11__hash_nodeISJ_PvEEEEbEERKT_DpOT0_@@Base
0000000000187b58 W _ZNSt6__ndk112__hash_tableINS_17__hash_value_typeINS_12basic_stringIcNS_11char_traitsIcEENS_9allocatorIcEEEENS_8functionIFNS_10shared_ptrIN2vk3enh9ResamplerEEERKNSB_6ConfigEEEEEENS_22__unordered_map_hasherIS7_SJ_NS_4hashIS7_EENS_8equal_toIS7_EELb1EEENS_21__unordered_map_equalIS7_SJ_SO_SM_Lb1EEENS5_ISJ_EEE4findIS7_EENS_15__hash_iteratorIPNS_11__hash_nodeISJ_PvEEEERKT_@@Base
00000000001c05dc W _ZNSt6__ndk120__shared_ptr_emplaceIN2vk3enh14TensorIndexIntENS_9allocatorIS3_EEED0Ev@@Base
00000000001c05c8 W _ZNSt6__ndk120__shared_ptr_emplaceIN2vk3enh14TensorIndexIntENS_9allocatorIS3_EEED2Ev@@Base
00000000001c06ec W _ZNSt6__ndk120__shared_ptr_emplaceIN2vk3enh17TensorIndexStringENS_9allocatorIS3_EEED0Ev@@Base
00000000001c06d8 W _ZNSt6__ndk120__shared_ptr_emplaceIN2vk3enh17TensorIndexStringENS_9allocatorIS3_EEED2Ev@@Base
00000000001c479c W _ZNSt6__ndk120__shared_ptr_emplaceIN2vk3enh19TfLiteTensorWrapperENS_9allocatorIS3_EEED0Ev@@Base
00000000001c4788 W _ZNSt6__ndk120__shared_ptr_emplaceIN2vk3enh19TfLiteTensorWrapperENS_9allocatorIS3_EEED2Ev@@Base
0000000000136cfc W _ZNSt6__ndk120__shared_ptr_emplaceIN2vk3enh8CPUImageENS_9allocatorIS3_EEED0Ev@@Base
0000000000136ce8 W _ZNSt6__ndk120__shared_ptr_emplaceIN2vk3enh8CPUImageENS_9allocatorIS3_EEED2Ev@@Base
000000000017f018 W _ZNSt6__ndk120__shared_ptr_emplaceIN2vk3enh9ScopedLogENS_9allocatorIS3_EEED0Ev@@Base
000000000017f004 W _ZNSt6__ndk120__shared_ptr_emplaceIN2vk3enh9ScopedLogENS_9allocatorIS3_EEED2Ev@@Base
000000000053e17c W _ZNSt6__ndk120__shared_ptr_emplaceIN2vk3enh9Wav2LipV1ENS_9allocatorIS3_EEED0Ev@@Base
000000000053e168 W _ZNSt6__ndk120__shared_ptr_emplaceIN2vk3enh9Wav2LipV1ENS_9allocatorIS3_EEED2Ev@@Base
000000000053e1d4 W _ZNSt6__ndk120__shared_ptr_emplaceIN2vk3enh9Wav2LipV3ENS_9allocatorIS3_EEED0Ev@@Base
000000000053e1c0 W _ZNSt6__ndk120__shared_ptr_emplaceIN2vk3enh9Wav2LipV3ENS_9allocatorIS3_EEED2Ev@@Base
000000000053e22c W _ZNSt6__ndk120__shared_ptr_emplaceIN2vk3enh9Wav2LipV4ENS_9allocatorIS3_EEED0Ev@@Base
000000000053e218 W _ZNSt6__ndk120__shared_ptr_emplaceIN2vk3enh9Wav2LipV4ENS_9allocatorIS3_EEED2Ev@@Base
0000000000545328 W _ZNSt6__ndk120__shared_ptr_pointerIPN2vk3enh11BCResNetKWSENS_10shared_ptrINS2_3KWSEE27__shared_ptr_default_deleteIS6_S3_EENS_9allocatorIS3_EEED0Ev@@Base
000000000052ec00 W _ZNSt6__ndk120__shared_ptr_pointerIPN2vk3enh12IntDecimatorENS_10shared_ptrINS2_9ResamplerEE27__shared_ptr_default_deleteIS6_S3_EENS_9allocatorIS3_EEED0Ev@@Base
00000000005387a8 W _ZNSt6__ndk120__shared_ptr_pointerIPN2vk3enh12SRCResamplerENS_10shared_ptrINS2_9ResamplerEE27__shared_ptr_default_deleteIS6_S3_EENS_9allocatorIS3_EEED0Ev@@Base
00000000001c472c W _ZNSt6__ndk120__shared_ptr_pointerIPN2vk3enh18TfLiteModelWrapperENS_10shared_ptrINS2_4NnetEE27__shared_ptr_default_deleteIS6_S3_EENS_9allocatorIS3_EEED0Ev@@Base
0000000000548150 W _ZNSt6__ndk120__shared_ptr_pointerIPN2vk3enh24BCResNetExternalStateKWSENS_10shared_ptrINS2_3KWSEE27__shared_ptr_default_deleteIS6_S3_EENS_9allocatorIS3_EEED0Ev@@Base
0000000000529b3c W _ZNSt6__ndk120__shared_ptr_pointerIPN2vk3enh2DfENS_10shared_ptrINS2_20EnhancementAlgorithmEE27__shared_ptr_default_deleteIS6_S3_EENS_9allocatorIS3_EEED0Ev@@Base
000000000052c230 W _ZNSt6__ndk120__shared_ptr_pointerIPN2vk3enh7GTCRNTFENS_10shared_ptrINS2_20EnhancementAlgorithmEE27__shared_ptr_default_deleteIS6_S3_EENS_9allocatorIS3_EEED0Ev@@Base
000000000012fd9c W _ZNSt6__ndk14pairINS_6vectorIN2vk3enh11AudioBufferENS_9allocatorIS4_EEEENS1_INS3_9TimestampENS5_IS8_EEEEEC2B8ne180000IRS7_RKSA_TnNS_9enable_ifIXclsr10_CheckArgsE17__enable_implicitIT_T0_EEEiE4typeELi0EEEOSH_OSI_@@Base
00000000001251f4 W _ZNSt6__ndk14pairINS_6vectorIN2vk3enh11AudioBufferENS_9allocatorIS4_EEEENS1_INS3_9TimestampENS5_IS8_EEEEED2Ev@@Base
0000000000196074 W _ZNSt6__ndk16vectorIN2vk3enh11AlignResultENS_9allocatorIS3_EEE16__init_with_sizeB8ne180000IPS3_S8_EEvT_T0_m@@Base
000000000012fe7c W _ZNSt6__ndk16vectorIN2vk3enh11AudioBufferENS_9allocatorIS3_EEE16__init_with_sizeB8ne180000IPS3_S8_EEvT_T0_m@@Base
000000000012217c W _ZNSt6__ndk16vectorIN2vk3enh11AudioBufferENS_9allocatorIS3_EEE21__push_back_slow_pathIRKS3_EEPS3_OT_@@Base
00000000001300c8 W _ZNSt6__ndk16vectorIN2vk3enh11AudioBufferENS_9allocatorIS3_EEE24__emplace_back_slow_pathIJNS0_IfNS4_IfEEEENS2_9AudioMetaEEEEPS3_DpOT_@@Base
00000000001241d8 W _ZNSt6__ndk16vectorIN2vk3enh11AudioBufferENS_9allocatorIS3_EEE24__emplace_back_slow_pathIJRPKcNS2_24AudioBufferFileInputType4EnumEEEEPS3_DpOT_@@Base
0000000000123028 W _ZNSt6__ndk16vectorIN2vk3enh11AudioBufferENS_9allocatorIS3_EEE24__emplace_back_slow_pathIJS3_EEEPS3_DpOT_@@Base
0000000000184e1c W _ZNSt6__ndk16vectorIN2vk3enh5TokenENS_9allocatorIS3_EEE18__insert_with_sizeB8ne180000INS_11__wrap_iterIPS3_EESA_EESA_NS8_IPKS3_EET_T0_l@@Base
0000000000120300 W _ZNSt6__ndk16vectorIN2vk3enh6ConfigENS_9allocatorIS3_EEE24__emplace_back_slow_pathIJRKNS2_11ConfigInputENS_10shared_ptrIN3ucl3UclEEEEEEPS3_DpOT_@@Base
0000000000195454 W _ZNSt6__ndk16vectorIN2vk3enh6HolderINS_10shared_ptrINS2_13ForcedAlignerEEENS2_20ForcedAlignerFactoryEEENS_9allocatorIS8_EEE24__emplace_back_slow_pathIJRKNS2_11ConfigInputEEEEPS8_DpOT_@@Base
00000000001c1204 W _ZNSt6__ndk16vectorINS_10shared_ptrIN2vk3enh11TensorIndexEEENS_9allocatorIS5_EEE21__push_back_slow_pathIRKS5_EEPS5_OT_@@Base
00000000001c47e4 W _ZNSt6__ndk16vectorINS_10shared_ptrIN2vk3enh11TensorIndexEEENS_9allocatorIS5_EEE24__emplace_back_slow_pathIJS5_EEEPS5_DpOT_@@Base
0000000000196240 W _ZNSt6__ndk19allocatorIN2vk3enh11AlignResultEE9constructB8ne180000IS3_JRS3_EEEvPT_DpOT0_@@Base
00000000001243e8 W _ZNSt6__ndk19allocatorIN2vk3enh11AudioBufferEE9constructB8ne180000IS3_JRPKcNS2_24AudioBufferFileInputType4EnumEEEEvPT_DpOT0_@@Base
00000000001204f8 W _ZNSt6__ndk19allocatorIN2vk3enh6ConfigEE9constructB8ne180000IS3_JRKNS2_11ConfigInputENS_10shared_ptrIN3ucl3UclEEEEEEvPT_DpOT0_@@Base
0000000000195a04 W _ZNSt6__ndk19allocatorIN2vk3enh6HolderINS_10shared_ptrINS2_13ForcedAlignerEEENS2_20ForcedAlignerFactoryEEEE9constructB8ne180000IS8_JRKS8_EEEvPT_DpOT0_@@Base
00000000005682a8 D _ZTIN2vk3enh10FileStreamE@@Base
000000000056ed60 D _ZTIN2vk3enh11BCResNetKWSE@@Base
000000000056a4c8 V _ZTIN2vk3enh11TensorIndexE@@Base
000000000056e130 D _ZTIN2vk3enh12IntDecimatorE@@Base
000000000056e2c0 D _ZTIN2vk3enh12SRCResamplerE@@Base
0000000000568260 V _ZTIN2vk3enh13CtxObjectBaseE@@Base
0000000000568270 V _ZTIN2vk3enh13CtxObjectImplINSt6__ndk16vectorINS3_IfNS2_9allocatorIfEEEENS4_IS6_EEEEEE@@Base
000000000056e090 V _ZTIN2vk3enh13gtcrntfParamsE@@Base
000000000056a4b0 D _ZTIN2vk3enh14TensorIndexIntE@@Base
00000000005681e8 V _ZTIN2vk3enh15ConcreteHandlerINSt6__ndk112basic_stringIcNS2_11char_traitsIcEENS2_9allocatorIcEEEEJNS2_6vectorINS9_IfNS6_IfEEEENS6_ISB_EEEEEEE@@Base
000000000056ea28 V _ZTIN2vk3enh15Wav2LipV1ParamsE@@Base
000000000056eae8 V _ZTIN2vk3enh15Wav2LipV3ParamsE@@Base
000000000056eb80 V _ZTIN2vk3enh15Wav2LipV4ParamsE@@Base
000000000056ea40 V _ZTIN2vk3enh16animoji_messages14AnimojiMessageE@@Base
000000000056ea50 V _ZTIN2vk3enh16animoji_messages24SetInternalBufferMessageE@@Base
000000000056ee40 V _ZTIN2vk3enh17BCResNetKWSParamsE@@Base
000000000056a510 D _ZTIN2vk3enh17TensorIndexStringE@@Base
000000000056a6c8 V _ZTIN2vk3enh17TfLiteModelParamsE@@Base
000000000056e210 V _ZTIN2vk3enh18IntDecimatorParamsE@@Base
000000000056a5d8 D _ZTIN2vk3enh18TfLiteModelWrapperE@@Base
000000000056a5c0 D _ZTIN2vk3enh19TfLiteTensorWrapperE@@Base
000000000056de98 V _ZTIN2vk3enh20EnhancementAlgorithmE@@Base
0000000000569fc0 V _ZTIN2vk3enh23thread_id_hex_formatterE@@Base
000000000056ef00 D _ZTIN2vk3enh24BCResNetExternalStateKWSE@@Base
000000000056dea8 V _ZTIN2vk3enh2DfE@@Base
000000000056efd0 V _ZTIN2vk3enh30BCResNetExternalStateKWSParamsE@@Base
000000000056edf8 V _ZTIN2vk3enh3KWSE@@Base
00000000005681d8 V _ZTIN2vk3enh4HookE@@Base
000000000056a680 V _ZTIN2vk3enh4NnetE@@Base
0000000000568538 V _ZTIN2vk3enh5ImageE@@Base
000000000056e080 V _ZTIN2vk3enh6Config14DeserializableINS0_13gtcrntfParamsEEE@@Base
000000000056ea18 V _ZTIN2vk3enh6Config14DeserializableINS0_15Wav2LipV1ParamsEEE@@Base
000000000056ead8 V _ZTIN2vk3enh6Config14DeserializableINS0_15Wav2LipV3ParamsEEE@@Base
000000000056eb70 V _ZTIN2vk3enh6Config14DeserializableINS0_15Wav2LipV4ParamsEEE@@Base
000000000056ee30 V _ZTIN2vk3enh6Config14DeserializableINS0_17BCResNetKWSParamsEEE@@Base
000000000056a6b8 V _ZTIN2vk3enh6Config14DeserializableINS0_17TfLiteModelParamsEEE@@Base
000000000056e200 V _ZTIN2vk3enh6Config14DeserializableINS0_18IntDecimatorParamsEEE@@Base
000000000056efc0 V _ZTIN2vk3enh6Config14DeserializableINS0_30BCResNetExternalStateKWSParamsEEE@@Base
000000000056dee8 V _ZTIN2vk3enh6Config14DeserializableINS0_8DfParamsEEE@@Base
000000000056a670 V _ZTIN2vk3enh6TensorE@@Base
000000000056e9e0 V _ZTIN2vk3enh7AnimojiE@@Base
000000000056dfc0 D _ZTIN2vk3enh7GTCRNTFE@@Base
0000000000568520 D _ZTIN2vk3enh8CPUImageE@@Base
000000000056def8 V _ZTIN2vk3enh8DfParamsE@@Base
00000000005682c0 V _ZTIN2vk3enh8IOStreamE@@Base
000000000056e1c8 V _ZTIN2vk3enh9ResamplerE@@Base
000000000056e9c8 D _ZTIN2vk3enh9Wav2LipV1E@@Base
000000000056ea98 D _ZTIN2vk3enh9Wav2LipV3E@@Base
000000000056eb30 D _ZTIN2vk3enh9Wav2LipV4E@@Base
000000000056de28 V _ZTINSt6__ndk110__function6__baseIFNS_10shared_ptrIN2vk3enh20EnhancementAlgorithmEEERKNS4_6ConfigEEEE@@Base
000000000056ee58 V _ZTINSt6__ndk110__function6__baseIFNS_10shared_ptrIN2vk3enh3KWSEEERKNS4_6ConfigEEEE@@Base
000000000056a6e0 V _ZTINSt6__ndk110__function6__baseIFNS_10shared_ptrIN2vk3enh4NnetEEERKNS4_6ConfigERKNS_6vectorIhNS_9allocatorIhEEEEEEE@@Base
000000000056ec18 V _ZTINSt6__ndk110__function6__baseIFNS_10shared_ptrIN2vk3enh7AnimojiEEERKNS4_6ConfigEEEE@@Base
000000000056e228 V _ZTINSt6__ndk110__function6__baseIFNS_10shared_ptrIN2vk3enh9ResamplerEEERKNS4_6ConfigEEEE@@Base
000000000056a310 V _ZTINSt6__ndk110__function6__baseIFNS_10shared_ptrIN2vk3enh9ScopedLogEEEvEEE@@Base
000000000056a410 V _ZTINSt6__ndk120__shared_ptr_emplaceIN2vk3enh14TensorIndexIntENS_9allocatorIS3_EEEE@@Base
000000000056a460 V _ZTINSt6__ndk120__shared_ptr_emplaceIN2vk3enh17TensorIndexStringENS_9allocatorIS3_EEEE@@Base
000000000056a778 V _ZTINSt6__ndk120__shared_ptr_emplaceIN2vk3enh19TfLiteTensorWrapperENS_9allocatorIS3_EEEE@@Base
0000000000568580 V _ZTINSt6__ndk120__shared_ptr_emplaceIN2vk3enh8CPUImageENS_9allocatorIS3_EEEE@@Base
000000000056a358 V _ZTINSt6__ndk120__shared_ptr_emplaceIN2vk3enh9ScopedLogENS_9allocatorIS3_EEEE@@Base
000000000056ec60 V _ZTINSt6__ndk120__shared_ptr_emplaceIN2vk3enh9Wav2LipV1ENS_9allocatorIS3_EEEE@@Base
000000000056ecb0 V _ZTINSt6__ndk120__shared_ptr_emplaceIN2vk3enh9Wav2LipV3ENS_9allocatorIS3_EEEE@@Base
000000000056ed00 V _ZTINSt6__ndk120__shared_ptr_emplaceIN2vk3enh9Wav2LipV4ENS_9allocatorIS3_EEEE@@Base
000000000056eea0 V _ZTINSt6__ndk120__shared_ptr_pointerIPN2vk3enh11BCResNetKWSENS_10shared_ptrINS2_3KWSEE27__shared_ptr_default_deleteIS6_S3_EENS_9allocatorIS3_EEEE@@Base
000000000056e270 V _ZTINSt6__ndk120__shared_ptr_pointerIPN2vk3enh12IntDecimatorENS_10shared_ptrINS2_9ResamplerEE27__shared_ptr_default_deleteIS6_S3_EENS_9allocatorIS3_EEEE@@Base
000000000056e980 V _ZTINSt6__ndk120__shared_ptr_pointerIPN2vk3enh12SRCResamplerENS_10shared_ptrINS2_9ResamplerEE27__shared_ptr_default_deleteIS6_S3_EENS_9allocatorIS3_EEEE@@Base
000000000056a728 V _ZTINSt6__ndk120__shared_ptr_pointerIPN2vk3enh18TfLiteModelWrapperENS_10shared_ptrINS2_4NnetEE27__shared_ptr_default_deleteIS6_S3_EENS_9allocatorIS3_EEEE@@Base
000000000056f020 V _ZTINSt6__ndk120__shared_ptr_pointerIPN2vk3enh24BCResNetExternalStateKWSENS_10shared_ptrINS2_3KWSEE27__shared_ptr_default_deleteIS6_S3_EENS_9allocatorIS3_EEEE@@Base
000000000056df48 V _ZTINSt6__ndk120__shared_ptr_pointerIPN2vk3enh2DfENS_10shared_ptrINS2_20EnhancementAlgorithmEE27__shared_ptr_default_deleteIS6_S3_EENS_9allocatorIS3_EEEE@@Base
000000000056e0e0 V _ZTINSt6__ndk120__shared_ptr_pointerIPN2vk3enh7GTCRNTFENS_10shared_ptrINS2_20EnhancementAlgorithmEE27__shared_ptr_default_deleteIS6_S3_EENS_9allocatorIS3_EEEE@@Base
0000000000083533 R _ZTSN2vk3enh10FileStreamE@@Base
000000000008ffc1 R _ZTSN2vk3enh11BCResNetKWSE@@Base
000000000008886d V _ZTSN2vk3enh11TensorIndexE@@Base
000000000008e665 R _ZTSN2vk3enh12IntDecimatorE@@Base
000000000008e904 R _ZTSN2vk3enh12SRCResamplerE@@Base
00000000000834f9 V _ZTSN2vk3enh13CtxObjectBaseE@@Base
00000000000834a6 V _ZTSN2vk3enh13CtxObjectImplINSt6__ndk16vectorINS3_IfNS2_9allocatorIfEEEENS4_IS6_EEEEEE@@Base
000000000008e512 V _ZTSN2vk3enh13gtcrntfParamsE@@Base
0000000000088853 R _ZTSN2vk3enh14TensorIndexIntE@@Base
00000000000833fd V _ZTSN2vk3enh15ConcreteHandlerINSt6__ndk112basic_stringIcNS2_11char_traitsIcEENS2_9allocatorIcEEEEJNS2_6vectorINS9_IfNS6_IfEEEENS6_ISB_EEEEEEE@@Base
000000000008fc4f V _ZTSN2vk3enh15Wav2LipV1ParamsE@@Base
000000000008fd19 V _ZTSN2vk3enh15Wav2LipV3ParamsE@@Base
000000000008fd81 V _ZTSN2vk3enh15Wav2LipV4ParamsE@@Base
000000000008fca3 V _ZTSN2vk3enh16animoji_messages14AnimojiMessageE@@Base
000000000008fccf V _ZTSN2vk3enh16animoji_messages24SetInternalBufferMessageE@@Base
0000000000090060 V _ZTSN2vk3enh17BCResNetKWSParamsE@@Base
0000000000088884 R _ZTSN2vk3enh17TensorIndexStringE@@Base
0000000000088991 V _ZTSN2vk3enh17TfLiteModelParamsE@@Base
000000000008e711 V _ZTSN2vk3enh18IntDecimatorParamsE@@Base
00000000000888c0 R _ZTSN2vk3enh18TfLiteModelWrapperE@@Base
00000000000888a1 R _ZTSN2vk3enh19TfLiteTensorWrapperE@@Base
000000000008e317 V _ZTSN2vk3enh20EnhancementAlgorithmE@@Base
00000000000882b1 V _ZTSN2vk3enh23thread_id_hex_formatterE@@Base
0000000000090237 R _ZTSN2vk3enh24BCResNetExternalStateKWSE@@Base
000000000008e30a V _ZTSN2vk3enh2DfE@@Base
00000000000902d5 V _ZTSN2vk3enh30BCResNetExternalStateKWSParamsE@@Base
0000000000090052 V _ZTSN2vk3enh3KWSE@@Base
00000000000833ee V _ZTSN2vk3enh4HookE@@Base
0000000000088982 V _ZTSN2vk3enh4NnetE@@Base
000000000008578f V _ZTSN2vk3enh5ImageE@@Base
000000000008e52b V _ZTSN2vk3enh6Config14DeserializableINS0_13gtcrntfParamsEEE@@Base
000000000008fc6a V _ZTSN2vk3enh6Config14DeserializableINS0_15Wav2LipV1ParamsEEE@@Base
000000000008fd34 V _ZTSN2vk3enh6Config14DeserializableINS0_15Wav2LipV3ParamsEEE@@Base
000000000008fd9c V _ZTSN2vk3enh6Config14DeserializableINS0_15Wav2LipV4ParamsEEE@@Base
000000000009007d V _ZTSN2vk3enh6Config14DeserializableINS0_17BCResNetKWSParamsEEE@@Base
00000000000889ae V _ZTSN2vk3enh6Config14DeserializableINS0_17TfLiteModelParamsEEE@@Base
000000000008e72f V _ZTSN2vk3enh6Config14DeserializableINS0_18IntDecimatorParamsEEE@@Base
00000000000902ff V _ZTSN2vk3enh6Config14DeserializableINS0_30BCResNetExternalStateKWSParamsEEE@@Base
000000000008e34a V _ZTSN2vk3enh6Config14DeserializableINS0_8DfParamsEEE@@Base
0000000000088971 V _ZTSN2vk3enh6TensorE@@Base
000000000008fc3d V _ZTSN2vk3enh7AnimojiE@@Base
000000000008e474 R _ZTSN2vk3enh7GTCRNTFE@@Base
0000000000083f4c R _ZTSN2vk3enh8CPUImageE@@Base
000000000008e337 V _ZTSN2vk3enh8DfParamsE@@Base
0000000000083549 V _ZTSN2vk3enh8IOStreamE@@Base
000000000008e6fd V _ZTSN2vk3enh9ResamplerE@@Base
000000000008fc29 R _ZTSN2vk3enh9Wav2LipV1E@@Base
000000000008fd05 R _ZTSN2vk3enh9Wav2LipV3E@@Base
000000000008fd6d R _ZTSN2vk3enh9Wav2LipV4E@@Base
000000000008e2a8 V _ZTSNSt6__ndk110__function6__baseIFNS_10shared_ptrIN2vk3enh20EnhancementAlgorithmEEERKNS4_6ConfigEEEE@@Base
00000000000900fe V _ZTSNSt6__ndk110__function6__baseIFNS_10shared_ptrIN2vk3enh3KWSEEERKNS4_6ConfigEEEE@@Base
0000000000088a51 V _ZTSNSt6__ndk110__function6__baseIFNS_10shared_ptrIN2vk3enh4NnetEEERKNS4_6ConfigERKNS_6vectorIhNS_9allocatorIhEEEEEEE@@Base
000000000008fe8f V _ZTSNSt6__ndk110__function6__baseIFNS_10shared_ptrIN2vk3enh7AnimojiEEERKNS4_6ConfigEEEE@@Base
000000000008e7b7 V _ZTSNSt6__ndk110__function6__baseIFNS_10shared_ptrIN2vk3enh9ResamplerEEERKNS4_6ConfigEEEE@@Base
00000000000886db V _ZTSNSt6__ndk110__function6__baseIFNS_10shared_ptrIN2vk3enh9ScopedLogEEEvEEE@@Base
000000000008e411 V _ZTSNSt6__ndk110shared_ptrIN2vk3enh20EnhancementAlgorithmEE27__shared_ptr_default_deleteIS3_NS2_2DfEEE@@Base
000000000008e5fd V _ZTSNSt6__ndk110shared_ptrIN2vk3enh20EnhancementAlgorithmEE27__shared_ptr_default_deleteIS3_NS2_7GTCRNTFEEE@@Base
00000000000901dc V _ZTSNSt6__ndk110shared_ptrIN2vk3enh3KWSEE27__shared_ptr_default_deleteIS3_NS2_11BCResNetKWSEEE@@Base
00000000000903e2 V _ZTSNSt6__ndk110shared_ptrIN2vk3enh3KWSEE27__shared_ptr_default_deleteIS3_NS2_24BCResNetExternalStateKWSEEE@@Base
0000000000088b59 V _ZTSNSt6__ndk110shared_ptrIN2vk3enh4NnetEE27__shared_ptr_default_deleteIS3_NS2_18TfLiteModelWrapperEEE@@Base
000000000008e8a2 V _ZTSNSt6__ndk110shared_ptrIN2vk3enh9ResamplerEE27__shared_ptr_default_deleteIS3_NS2_12IntDecimatorEEE@@Base
000000000008fbc7 V _ZTSNSt6__ndk110shared_ptrIN2vk3enh9ResamplerEE27__shared_ptr_default_deleteIS3_NS2_12SRCResamplerEEE@@Base
00000000000887b0 V _ZTSNSt6__ndk120__shared_ptr_emplaceIN2vk3enh14TensorIndexIntENS_9allocatorIS3_EEEE@@Base
0000000000088800 V _ZTSNSt6__ndk120__shared_ptr_emplaceIN2vk3enh17TensorIndexStringENS_9allocatorIS3_EEEE@@Base
0000000000088bbc V _ZTSNSt6__ndk120__shared_ptr_emplaceIN2vk3enh19TfLiteTensorWrapperENS_9allocatorIS3_EEEE@@Base
0000000000085920 V _ZTSNSt6__ndk120__shared_ptr_emplaceIN2vk3enh8CPUImageENS_9allocatorIS3_EEEE@@Base
0000000000088724 V _ZTSNSt6__ndk120__shared_ptr_emplaceIN2vk3enh9ScopedLogENS_9allocatorIS3_EEEE@@Base
000000000008fee3 V _ZTSNSt6__ndk120__shared_ptr_emplaceIN2vk3enh9Wav2LipV1ENS_9allocatorIS3_EEEE@@Base
000000000008ff2d V _ZTSNSt6__ndk120__shared_ptr_emplaceIN2vk3enh9Wav2LipV3ENS_9allocatorIS3_EEEE@@Base
000000000008ff77 V _ZTSNSt6__ndk120__shared_ptr_emplaceIN2vk3enh9Wav2LipV4ENS_9allocatorIS3_EEEE@@Base
000000000009014e V _ZTSNSt6__ndk120__shared_ptr_pointerIPN2vk3enh11BCResNetKWSENS_10shared_ptrINS2_3KWSEE27__shared_ptr_default_deleteIS6_S3_EENS_9allocatorIS3_EEEE@@Base
000000000008e80d V _ZTSNSt6__ndk120__shared_ptr_pointerIPN2vk3enh12IntDecimatorENS_10shared_ptrINS2_9ResamplerEE27__shared_ptr_default_deleteIS6_S3_EENS_9allocatorIS3_EEEE@@Base
000000000008fb32 V _ZTSNSt6__ndk120__shared_ptr_pointerIPN2vk3enh12SRCResamplerENS_10shared_ptrINS2_9ResamplerEE27__shared_ptr_default_deleteIS6_S3_EENS_9allocatorIS3_EEEE@@Base
0000000000088ac3 V _ZTSNSt6__ndk120__shared_ptr_pointerIPN2vk3enh18TfLiteModelWrapperENS_10shared_ptrINS2_4NnetEE27__shared_ptr_default_deleteIS6_S3_EENS_9allocatorIS3_EEEE@@Base
0000000000090347 V _ZTSNSt6__ndk120__shared_ptr_pointerIPN2vk3enh24BCResNetExternalStateKWSENS_10shared_ptrINS2_3KWSEE27__shared_ptr_default_deleteIS6_S3_EENS_9allocatorIS3_EEEE@@Base
000000000008e37b V _ZTSNSt6__ndk120__shared_ptr_pointerIPN2vk3enh2DfENS_10shared_ptrINS2_20EnhancementAlgorithmEE27__shared_ptr_default_deleteIS6_S3_EENS_9allocatorIS3_EEEE@@Base
000000000008e562 V _ZTSNSt6__ndk120__shared_ptr_pointerIPN2vk3enh7GTCRNTFENS_10shared_ptrINS2_20EnhancementAlgorithmEE27__shared_ptr_default_deleteIS6_S3_EENS_9allocatorIS3_EEEE@@Base
000000000008e1c4 V _ZTSNSt6__ndk18functionIFNS_10shared_ptrIN2vk3enh20EnhancementAlgorithmEEERKNS3_6ConfigEEEE@@Base
00000000000900b8 V _ZTSNSt6__ndk18functionIFNS_10shared_ptrIN2vk3enh3KWSEEERKNS3_6ConfigEEEE@@Base
00000000000889e9 V _ZTSNSt6__ndk18functionIFNS_10shared_ptrIN2vk3enh4NnetEEERKNS3_6ConfigERKNS_6vectorIhNS_9allocatorIhEEEEEEE@@Base
000000000008fdd5 V _ZTSNSt6__ndk18functionIFNS_10shared_ptrIN2vk3enh7AnimojiEEERKNS3_6ConfigEEEE@@Base
000000000008e76b V _ZTSNSt6__ndk18functionIFNS_10shared_ptrIN2vk3enh9ResamplerEEERKNS3_6ConfigEEEE@@Base
0000000000568288 D _ZTVN2vk3enh10FileStreamE@@Base
000000000056ed18 D _ZTVN2vk3enh11BCResNetKWSE@@Base
000000000056e0f8 D _ZTVN2vk3enh12IntDecimatorE@@Base
000000000056e288 D _ZTVN2vk3enh12SRCResamplerE@@Base
0000000000568240 V _ZTVN2vk3enh13CtxObjectImplINSt6__ndk16vectorINS3_IfNS2_9allocatorIfEEEENS4_IS6_EEEEEE@@Base
000000000056e058 V _ZTVN2vk3enh13gtcrntfParamsE@@Base
000000000056a478 D _ZTVN2vk3enh14TensorIndexIntE@@Base
000000000056e9f0 V _ZTVN2vk3enh15Wav2LipV1ParamsE@@Base
000000000056eab0 V _ZTVN2vk3enh15Wav2LipV3ParamsE@@Base
000000000056eb48 V _ZTVN2vk3enh15Wav2LipV4ParamsE@@Base
000000000056ee08 V _ZTVN2vk3enh17BCResNetKWSParamsE@@Base
000000000056a4d8 D _ZTVN2vk3enh17TensorIndexStringE@@Base
000000000056a690 V _ZTVN2vk3enh17TfLiteModelParamsE@@Base
000000000056e1d8 V _ZTVN2vk3enh18IntDecimatorParamsE@@Base
000000000056a528 D _ZTVN2vk3enh18TfLiteModelWrapperE@@Base
000000000056a570 D _ZTVN2vk3enh19TfLiteTensorWrapperE@@Base
0000000000569f78 V _ZTVN2vk3enh23thread_id_hex_formatterE@@Base
000000000056eeb8 D _ZTVN2vk3enh24BCResNetExternalStateKWSE@@Base
000000000056de38 V _ZTVN2vk3enh2DfE@@Base
000000000056ef98 V _ZTVN2vk3enh30BCResNetExternalStateKWSParamsE@@Base
000000000056df60 D _ZTVN2vk3enh7GTCRNTFE@@Base
00000000005684c8 D _ZTVN2vk3enh8CPUImageE@@Base
000000000056dec0 V _ZTVN2vk3enh8DfParamsE@@Base
000000000056e998 D _ZTVN2vk3enh9Wav2LipV1E@@Base
000000000056ea68 D _ZTVN2vk3enh9Wav2LipV3E@@Base
000000000056eb00 D _ZTVN2vk3enh9Wav2LipV4E@@Base
000000000056a3d8 V _ZTVNSt6__ndk120__shared_ptr_emplaceIN2vk3enh14TensorIndexIntENS_9allocatorIS3_EEEE@@Base
000000000056a428 V _ZTVNSt6__ndk120__shared_ptr_emplaceIN2vk3enh17TensorIndexStringENS_9allocatorIS3_EEEE@@Base
000000000056a740 V _ZTVNSt6__ndk120__shared_ptr_emplaceIN2vk3enh19TfLiteTensorWrapperENS_9allocatorIS3_EEEE@@Base
0000000000568548 V _ZTVNSt6__ndk120__shared_ptr_emplaceIN2vk3enh8CPUImageENS_9allocatorIS3_EEEE@@Base
000000000056a320 V _ZTVNSt6__ndk120__shared_ptr_emplaceIN2vk3enh9ScopedLogENS_9allocatorIS3_EEEE@@Base
000000000056ec28 V _ZTVNSt6__ndk120__shared_ptr_emplaceIN2vk3enh9Wav2LipV1ENS_9allocatorIS3_EEEE@@Base
000000000056ec78 V _ZTVNSt6__ndk120__shared_ptr_emplaceIN2vk3enh9Wav2LipV3ENS_9allocatorIS3_EEEE@@Base
000000000056ecc8 V _ZTVNSt6__ndk120__shared_ptr_emplaceIN2vk3enh9Wav2LipV4ENS_9allocatorIS3_EEEE@@Base
000000000056ee68 V _ZTVNSt6__ndk120__shared_ptr_pointerIPN2vk3enh11BCResNetKWSENS_10shared_ptrINS2_3KWSEE27__shared_ptr_default_deleteIS6_S3_EENS_9allocatorIS3_EEEE@@Base
000000000056e238 V _ZTVNSt6__ndk120__shared_ptr_pointerIPN2vk3enh12IntDecimatorENS_10shared_ptrINS2_9ResamplerEE27__shared_ptr_default_deleteIS6_S3_EENS_9allocatorIS3_EEEE@@Base
000000000056e948 V _ZTVNSt6__ndk120__shared_ptr_pointerIPN2vk3enh12SRCResamplerENS_10shared_ptrINS2_9ResamplerEE27__shared_ptr_default_deleteIS6_S3_EENS_9allocatorIS3_EEEE@@Base
000000000056a6f0 V _ZTVNSt6__ndk120__shared_ptr_pointerIPN2vk3enh18TfLiteModelWrapperENS_10shared_ptrINS2_4NnetEE27__shared_ptr_default_deleteIS6_S3_EENS_9allocatorIS3_EEEE@@Base
000000000056efe8 V _ZTVNSt6__ndk120__shared_ptr_pointerIPN2vk3enh24BCResNetExternalStateKWSENS_10shared_ptrINS2_3KWSEE27__shared_ptr_default_deleteIS6_S3_EENS_9allocatorIS3_EEEE@@Base
000000000056df10 V _ZTVNSt6__ndk120__shared_ptr_pointerIPN2vk3enh2DfENS_10shared_ptrINS2_20EnhancementAlgorithmEE27__shared_ptr_default_deleteIS6_S3_EENS_9allocatorIS3_EEEE@@Base
000000000056e0a8 V _ZTVNSt6__ndk120__shared_ptr_pointerIPN2vk3enh7GTCRNTFENS_10shared_ptrINS2_20EnhancementAlgorithmEE27__shared_ptr_default_deleteIS6_S3_EENS_9allocatorIS3_EEEE@@Base
000000000057bad0 V _ZZN2vk3enh12CachedObjectINS0_9ScopedLogEE12creatorFuncsEvE14_creator_funcs@@Base
000000000057bb30 V _ZZN2vk3enh12CachedObjectINS0_9ScopedLogEE5cacheEvE6_cache@@Base
000000000057ba38 V _ZZN2vk3enh12CachedObjectINS0_9ScopedLogEE5mutexEvE6_mutex@@Base
000000000057bb00 V _ZZN2vk3enh12CachedObjectINS0_9ScopedLogEE9onceFlagsEvE11_once_flags@@Base
000000000057b648 V _ZZN2vk3enh24AudioBufferFileInputType12names2ValuesEvE3map@@Base
000000000057b618 V _ZZN2vk3enh24AudioBufferFileInputType12values2NamesEvE3map@@Base
000000000057bf60 V _ZZN2vk3enh8RegistryINSt6__ndk112basic_stringIcNS2_11char_traitsIcEENS2_9allocatorIcEEEEFNS2_10shared_ptrINS0_10AudioMixerEEERKNS0_6ConfigEEE7classesEvE8instance@@Base
000000000057bf30 V _ZZN2vk3enh8RegistryINSt6__ndk112basic_stringIcNS2_11char_traitsIcEENS2_9allocatorIcEEEEFNS2_10shared_ptrINS0_11AudioFilterEEERKNS0_6ConfigEEE7classesEvE8instance@@Base
000000000057bc50 V _ZZN2vk3enh8RegistryINSt6__ndk112basic_stringIcNS2_11char_traitsIcEENS2_9allocatorIcEEEEFNS2_10shared_ptrINS0_13ForcedAlignerEEERKNS0_6ConfigEEE7classesEvE8instance@@Base
000000000057bbc0 V _ZZN2vk3enh8RegistryINSt6__ndk112basic_stringIcNS2_11char_traitsIcEENS2_9allocatorIcEEEEFNS2_10shared_ptrINS0_15AudioClassifierEEERKNS0_6ConfigEEE7classesEvE8instance@@Base
000000000057bda0 V _ZZN2vk3enh8RegistryINSt6__ndk112basic_stringIcNS2_11char_traitsIcEENS2_9allocatorIcEEEEFNS2_10shared_ptrINS0_15SuperResolutionEEERKNS0_6ConfigEEE7classesEvE8instance@@Base
000000000057bf90 V _ZZN2vk3enh8RegistryINSt6__ndk112basic_stringIcNS2_11char_traitsIcEENS2_9allocatorIcEEEEFNS2_10shared_ptrINS0_16AudioDelayBufferEEERKNS0_6ConfigEEE7classesEvE8instance@@Base
000000000057bce0 V _ZZN2vk3enh8RegistryINSt6__ndk112basic_stringIcNS2_11char_traitsIcEENS2_9allocatorIcEEEEFNS2_10shared_ptrINS0_17DiarizationEngineEEERKNS0_6ConfigEEE7classesEvE8instance@@Base
000000000057bbf0 V _ZZN2vk3enh8RegistryINSt6__ndk112basic_stringIcNS2_11char_traitsIcEENS2_9allocatorIcEEEEFNS2_10shared_ptrINS0_20EnhancementAlgorithmEEERKNS0_6ConfigEEE7classesEvE8instance@@Base
000000000057bd10 V _ZZN2vk3enh8RegistryINSt6__ndk112basic_stringIcNS2_11char_traitsIcEENS2_9allocatorIcEEEEFNS2_10shared_ptrINS0_24SpeakerRecognitionEngineEEERKNS0_6ConfigEEE7classesEvE8instance@@Base
000000000057bd40 V _ZZN2vk3enh8RegistryINSt6__ndk112basic_stringIcNS2_11char_traitsIcEENS2_9allocatorIcEEEEFNS2_10shared_ptrINS0_26SpeakerRecognitionVerifierEEERKNS0_6ConfigEEE7classesEvE8instance@@Base
000000000057bd70 V _ZZN2vk3enh8RegistryINSt6__ndk112basic_stringIcNS2_11char_traitsIcEENS2_9allocatorIcEEEEFNS2_10shared_ptrINS0_3AECEEERKNS0_6ConfigEEE7classesEvE8instance@@Base
000000000057bc20 V _ZZN2vk3enh8RegistryINSt6__ndk112basic_stringIcNS2_11char_traitsIcEENS2_9allocatorIcEEEEFNS2_10shared_ptrINS0_3AGCEEERKNS0_6ConfigEEE7classesEvE8instance@@Base
000000000057be00 V _ZZN2vk3enh8RegistryINSt6__ndk112basic_stringIcNS2_11char_traitsIcEENS2_9allocatorIcEEEEFNS2_10shared_ptrINS0_3ASREEERKNS0_6ConfigEEE7classesEvE8instance@@Base
000000000057bfc0 V _ZZN2vk3enh8RegistryINSt6__ndk112basic_stringIcNS2_11char_traitsIcEENS2_9allocatorIcEEEEFNS2_10shared_ptrINS0_3KWSEEERKNS0_6ConfigEEE7classesEvE8instance@@Base
000000000057bdd0 V _ZZN2vk3enh8RegistryINSt6__ndk112basic_stringIcNS2_11char_traitsIcEENS2_9allocatorIcEEEEFNS2_10shared_ptrINS0_3VfiEEERKNS0_6ConfigEEE7classesEvE8instance@@Base
000000000057d2f8 V _ZZN2vk3enh8RegistryINSt6__ndk112basic_stringIcNS2_11char_traitsIcEENS2_9allocatorIcEEEEFNS2_10shared_ptrINS0_4NnetEEERKNS0_6ConfigERKNS2_6vectorIhNS6_IhEEEEEE7classesEvE8instance@@Base
000000000057bed0 V _ZZN2vk3enh8RegistryINSt6__ndk112basic_stringIcNS2_11char_traitsIcEENS2_9allocatorIcEEEEFNS2_10shared_ptrINS0_5CodecEEERKNS0_6ConfigEEE7classesEvE8instance@@Base
000000000057be70 V _ZZN2vk3enh8RegistryINSt6__ndk112basic_stringIcNS2_11char_traitsIcEENS2_9allocatorIcEEEEFNS2_10shared_ptrINS0_5PunctEEERKNS0_6ConfigEEE7classesEvE8instance@@Base
000000000057bf00 V _ZZN2vk3enh8RegistryINSt6__ndk112basic_stringIcNS2_11char_traitsIcEENS2_9allocatorIcEEEEFNS2_10shared_ptrINS0_6EffectEEERKNS0_6ConfigEEE7classesEvE8instance@@Base
000000000057be40 V _ZZN2vk3enh8RegistryINSt6__ndk112basic_stringIcNS2_11char_traitsIcEENS2_9allocatorIcEEEEFNS2_10shared_ptrINS0_7AnimojiEEERKNS0_6ConfigEEE7classesEvE8instance@@Base
000000000057bcb0 V _ZZN2vk3enh8RegistryINSt6__ndk112basic_stringIcNS2_11char_traitsIcEENS2_9allocatorIcEEEEFNS2_10shared_ptrINS0_8PipelineEEERKNS0_6ConfigEEE7classesEvE8instance@@Base
000000000057bea0 V _ZZN2vk3enh8RegistryINSt6__ndk112basic_stringIcNS2_11char_traitsIcEENS2_9allocatorIcEEEEFNS2_10shared_ptrINS0_9ProfanityEEERKNS0_6ConfigEEE7classesEvE8instance@@Base
000000000057bc80 V _ZZN2vk3enh8RegistryINSt6__ndk112basic_stringIcNS2_11char_traitsIcEENS2_9allocatorIcEEEEFNS2_10shared_ptrINS0_9ResamplerEEERKNS0_6ConfigEEE7classesEvE8instance@@Base
000000000057b9d8 V _ZZN2vk3enh9ScopedLog5Level12names2ValuesEvE3map@@Base
000000000057ba08 V _ZZN2vk3enh9ScopedLog9Verbosity12names2ValuesEvE3map@@Base
000000000011fe7c W _ZZNK2vk3enh6Config12convertArrayIfd12ucl_object_sEENSt6__ndk16vectorIT_NS4_9allocatorIS6_EEEERKNS4_12basic_stringIcNS4_11char_traitsIcEENS7_IcEEEEPFbPKT1_PT0_EENKUlPKS3_E_clESP_@@Base
0000000000120cdc W _ZZNK2vk3enh6Config12convertArrayIll12ucl_object_sEENSt6__ndk16vectorIT_NS4_9allocatorIS6_EEEERKNS4_12basic_stringIcNS4_11char_traitsIcEENS7_IcEEEEPFbPKT1_PT0_EENKUlPKS3_E_clESP_@@Base
0000000000120034 W _ZZNK2vk3enh6Config23convertArrayWithDefaultIfd12ucl_object_sEENSt6__ndk16vectorIT_NS4_9allocatorIS6_EEEERKNS4_12basic_stringIcNS4_11char_traitsIcEENS7_IcEEEEPFbPKT1_PT0_ERS9_ENKUlPKS3_E_clESQ_@@Base
0000000000120e8c W _ZZNK2vk3enh6Config23convertArrayWithDefaultIll12ucl_object_sEENSt6__ndk16vectorIT_NS4_9allocatorIS6_EEEERKNS4_12basic_stringIcNS4_11char_traitsIcEENS7_IcEEEEPFbPKT1_PT0_ERS9_ENKUlPKS3_E_clESQ_@@Base
0000000000120b70 W _ZZNK2vk3enh6Config23convertArrayWithDefaultINSt6__ndk112basic_stringIcNS3_11char_traitsIcEENS3_9allocatorIcEEEEPKc12ucl_object_sEENS3_6vectorIT_NS7_ISE_EEEERKS9_PFbPKT1_PT0_ERSG_ENKUlPKSC_E_clESS_@@Base
